EXPORTS
	_ZN10HsSnapLine11qt_metacallEN11QMetaObject4CallEiPPv @ 1 NONAME
	_ZN10HsSnapLine11qt_metacastEPKc @ 2 NONAME
	_ZN10HsSnapLine16setConfigurationERK5QHashI7QString8QVariantE @ 3 NONAME
	_ZN10HsSnapLine16staticMetaObjectE @ 4 NONAME DATA 16
	_ZN10HsSnapLine19getStaticMetaObjectEv @ 5 NONAME
	_ZN10HsSnapLine19stopFadeInAnimationEv @ 6 NONAME
	_ZN10HsSnapLine20startFadeInAnimationEv @ 7 NONAME
	_ZN10HsSnapLine20stopFadeOutAnimationEv @ 8 NONAME
	_ZN10HsSnapLine21startFadeOutAnimationEv @ 9 NONAME
	_ZN10HsSnapLine23fadeInAnimationFinishedEv @ 10 NONAME
	_ZN10HsSnapLine24fadeOutAnimationFinishedEv @ 11 NONAME
	_ZN10HsSnapLine27actionOnFadeInAnimationStopEv @ 12 NONAME
	_ZN10HsSnapLine28actionOnFadeOutAnimationStopEv @ 13 NONAME
	_ZN10HsSnapLine8hideLineEv @ 14 NONAME
	_ZN10HsSnapLine8showLineERK6QLineF @ 15 NONAME
	_ZN10HsSnapLineC1EP13QGraphicsItem @ 16 NONAME
	_ZN10HsSnapLineC2EP13QGraphicsItem @ 17 NONAME
	_ZN10HsSnapLineD0Ev @ 18 NONAME
	_ZN10HsSnapLineD1Ev @ 19 NONAME
	_ZN10HsSnapLineD2Ev @ 20 NONAME
	_ZN11HsMenuEvent9eventTypeEv @ 21 NONAME
	_ZN11HsMenuEventC1ENS_13OperationTypeERK4QMapI7QString8QVariantE @ 22 NONAME
	_ZN11HsMenuEventC2ENS_13OperationTypeERK4QMapI7QString8QVariantE @ 23 NONAME
	_ZN13HsSnapToLines16setConfigurationERK5QHashI7QString8QVariantE @ 24 NONAME
	_ZN13HsSnapToLines18createVerticalLineEv @ 25 NONAME
	_ZN13HsSnapToLines18extendVerticalLineEv @ 26 NONAME
	_ZN13HsSnapToLines19setPagePresentationERK6QRectFRK5QListIS0_ES2_ @ 27 NONAME
	_ZN13HsSnapToLines20createHorizontalLineEv @ 28 NONAME
	_ZN13HsSnapToLines20extendHorizontalLineEv @ 29 NONAME
	_ZN13HsSnapToLines25createSnappableRectanglesERK5QListI6QRectFE @ 30 NONAME
	_ZN13HsSnapToLines33compareTopOfMovingRectForSnappingEv @ 31 NONAME
	_ZN13HsSnapToLines36compareBottomOfMovingRectForSnappingEv @ 32 NONAME
	_ZN13HsSnapToLines37checkInactiveRectVerticalEdgesInRangeEf @ 33 NONAME
	_ZN13HsSnapToLines38compareLeftSideOfMovingRectForSnappingEv @ 34 NONAME
	_ZN13HsSnapToLines39checkInactiveRectHorizontalEdgesInRangeEf @ 35 NONAME
	_ZN13HsSnapToLines39checkInactiveRectPositionToVerticalLineEv @ 36 NONAME
	_ZN13HsSnapToLines39compareRightSideOfMovingRectForSnappingEv @ 37 NONAME
	_ZN13HsSnapToLines39extendVerticalLineToIncludeInactiveRectEv @ 38 NONAME
	_ZN13HsSnapToLines3runERK6QRectF @ 39 NONAME
	_ZN13HsSnapToLines41checkInactiveRectPositionToHorizontalLineEv @ 40 NONAME
	_ZN13HsSnapToLines41extendHorizontalLineToIncludeInactiveRectEv @ 41 NONAME
	_ZN13HsSnapToLines43checkInactiveRectLieLeftOrRightOfMovingRectEv @ 42 NONAME
	_ZN13HsSnapToLines44checkInactiveRectLieAboveOrBelowOfMovingRectEv @ 43 NONAME
	_ZN13HsSnapToLines45checkInactiveRectBetterFitForVerticalSnappingEff @ 44 NONAME
	_ZN13HsSnapToLines47checkInactiveRectBetterFitForHorizontalSnappingEff @ 45 NONAME
	_ZN13HsSnapToLinesC1Ev @ 46 NONAME
	_ZN13HsSnapToLinesC2Ev @ 47 NONAME
	_ZN15HsPageIndicator10initializeEii @ 48 NONAME
	_ZN15HsPageIndicator10removeItemEi @ 49 NONAME
	_ZN15HsPageIndicator10setSpacingEf @ 50 NONAME
	_ZN15HsPageIndicator11layoutItemsEv @ 51 NONAME
	_ZN15HsPageIndicator11qt_metacallEN11QMetaObject4CallEiPPv @ 52 NONAME
	_ZN15HsPageIndicator11qt_metacastEPKc @ 53 NONAME
	_ZN15HsPageIndicator16staticMetaObjectE @ 54 NONAME DATA 16
	_ZN15HsPageIndicator18setActiveItemIndexEi @ 55 NONAME
	_ZN15HsPageIndicator19getStaticMetaObjectEv @ 56 NONAME
	_ZN15HsPageIndicator7addItemEi @ 57 NONAME
	_ZN15HsPageIndicatorC1EfP13QGraphicsItem @ 58 NONAME
	_ZN15HsPageIndicatorC2EfP13QGraphicsItem @ 59 NONAME
	_ZN15HsPageIndicatorD0Ev @ 60 NONAME
	_ZN15HsPageIndicatorD1Ev @ 61 NONAME
	_ZN15HsPageIndicatorD2Ev @ 62 NONAME
	_ZN15HsSpinnerDialog11qt_metacallEN11QMetaObject4CallEiPPv @ 63 NONAME
	_ZN15HsSpinnerDialog11qt_metacastEPKc @ 64 NONAME
	_ZN15HsSpinnerDialog16staticMetaObjectE @ 65 NONAME DATA 16
	_ZN15HsSpinnerDialog19getStaticMetaObjectEv @ 66 NONAME
	_ZN15HsSpinnerDialog4stopEv @ 67 NONAME
	_ZN15HsSpinnerDialog5startEv @ 68 NONAME
	_ZN15HsSpinnerDialogC1EP13QGraphicsItem @ 69 NONAME
	_ZN15HsSpinnerDialogC2EP13QGraphicsItem @ 70 NONAME
	_ZN15HsSpinnerDialogD0Ev @ 71 NONAME
	_ZN15HsSpinnerDialogD1Ev @ 72 NONAME
	_ZN15HsSpinnerDialogD2Ev @ 73 NONAME
	_ZN15HsTitleResolver11qt_metacallEN11QMetaObject4CallEiPPv @ 74 NONAME
	_ZN15HsTitleResolver11qt_metacastEPKc @ 75 NONAME
	_ZN15HsTitleResolver12titleChangedERK7QString @ 76 NONAME
	_ZN15HsTitleResolver15onStatusChangedEN20HsDeviceInfoListener18HsDeviceInfoStatusE @ 77 NONAME
	_ZN15HsTitleResolver16staticMetaObjectE @ 78 NONAME DATA 16
	_ZN15HsTitleResolver19getStaticMetaObjectEv @ 79 NONAME
	_ZN15HsTitleResolver20onNetworkNameChangedERK7QString @ 80 NONAME
	_ZN15HsTitleResolver5titleEv @ 81 NONAME
	_ZN15HsTitleResolverC1EP7QObject @ 82 NONAME
	_ZN15HsTitleResolverC2EP7QObject @ 83 NONAME
	_ZN15HsTitleResolverD0Ev @ 84 NONAME
	_ZN15HsTitleResolverD1Ev @ 85 NONAME
	_ZN15HsTitleResolverD2Ev @ 86 NONAME
	_ZN16HsTrashBinWidget10deactivateEv @ 87 NONAME
	_ZN16HsTrashBinWidget11qt_metacallEN11QMetaObject4CallEiPPv @ 88 NONAME
	_ZN16HsTrashBinWidget11qt_metacastEPKc @ 89 NONAME
	_ZN16HsTrashBinWidget16staticMetaObjectE @ 90 NONAME DATA 16
	_ZN16HsTrashBinWidget19getStaticMetaObjectEv @ 91 NONAME
	_ZN16HsTrashBinWidget8activateEv @ 92 NONAME
	_ZN16HsTrashBinWidgetC1EP13QGraphicsItem @ 93 NONAME
	_ZN16HsTrashBinWidgetC2EP13QGraphicsItem @ 94 NONAME
	_ZN16HsTrashBinWidgetD0Ev @ 95 NONAME
	_ZN16HsTrashBinWidgetD1Ev @ 96 NONAME
	_ZN16HsTrashBinWidgetD2Ev @ 97 NONAME
	_ZN17HsImageGridWidget10setContentERK11QStringList @ 98 NONAME
	_ZN17HsImageGridWidget11qt_metacallEN11QMetaObject4CallEiPPv @ 99 NONAME
	_ZN17HsImageGridWidget11qt_metacastEPKc @ 100 NONAME
	_ZN17HsImageGridWidget13imageSelectedERK7QString @ 101 NONAME
	_ZN17HsImageGridWidget16staticMetaObjectE @ 102 NONAME DATA 16
	_ZN17HsImageGridWidget17gridItemActivatedERK11QModelIndex @ 103 NONAME
	_ZN17HsImageGridWidget19getStaticMetaObjectEv @ 104 NONAME
	_ZN17HsImageGridWidgetC1ERK11QStringListP13QGraphicsItem @ 105 NONAME
	_ZN17HsImageGridWidgetC2ERK11QStringListP13QGraphicsItem @ 106 NONAME
	_ZN17HsImageGridWidgetD0Ev @ 107 NONAME
	_ZN17HsImageGridWidgetD1Ev @ 108 NONAME
	_ZN17HsImageGridWidgetD2Ev @ 109 NONAME
	_ZN17HsWidgetOrganizer11initAnchorsERK6QSizeF @ 110 NONAME
	_ZN17HsWidgetOrganizer14getAnchorPointERK6QSizeF @ 111 NONAME
	_ZN17HsWidgetOrganizer16searchWidthSpaceERK6QSizeF @ 112 NONAME
	_ZN17HsWidgetOrganizer17searchHeightSpaceEi @ 113 NONAME
	_ZN17HsWidgetOrganizer19markReservedAnchorsEv @ 114 NONAME
	_ZN17HsWidgetOrganizer20getAnchorCoordinatesEi @ 115 NONAME
	_ZN17HsWidgetOrganizer20lenghtInAnchorPointsE8QVariant @ 116 NONAME
	_ZN17HsWidgetOrganizer21getIndexForCoordinateE7QPointF @ 117 NONAME
	_ZN17HsWidgetOrganizer7convertERK6QRectFRK5QListIS0_ES6_RK7QPointF @ 118 NONAME
	_ZN18HsMenuEventFactory18createUnknownEventEv @ 119 NONAME
	_ZN18HsMenuEventFactory24createNewCollectionEventEv @ 120 NONAME
	_ZN18HsMenuEventFactory25createAppDetailsViewEventEi @ 121 NONAME
	_ZN18HsMenuEventFactory25createOpenAppLibraryEventEN2Hs10HsMenuModeE8QVariant @ 122 NONAME
	_ZN18HsMenuEventFactory25createOpenCollectionEventEiRK7QString @ 123 NONAME
	_ZN18HsMenuEventFactory25createOpenHomeScreenEventEv @ 124 NONAME
	_ZN18HsMenuEventFactory26createAddToHomeScreenEventEiN2Hs10HsMenuModeE8QVariant @ 125 NONAME
	_ZN18HsMenuEventFactory26createAppSettingsViewEventEi @ 126 NONAME
	_ZN18HsMenuEventFactory26createInstallationLogEventEv @ 127 NONAME
	_ZN18HsMenuEventFactory26createPreviewHSWidgetEventEiRK7QStringS2_S2_ @ 128 NONAME
	_ZN18HsMenuEventFactory26createUninstallFailedEventEi @ 129 NONAME
	_ZN18HsMenuEventFactory27createDeleteCollectionEventEi @ 130 NONAME
	_ZN18HsMenuEventFactory27createRenameCollectionEventEi @ 131 NONAME
	_ZN18HsMenuEventFactory28createArrangeCollectionEventEii @ 132 NONAME
	_ZN18HsMenuEventFactory28createCollectionDeletedEventEv @ 133 NONAME
	_ZN18HsMenuEventFactory28createOpenInstalledViewEventEv @ 134 NONAME
	_ZN18HsMenuEventFactory31createUninstallApplicationEventEi @ 135 NONAME
	_ZN18HsMenuEventFactory32createArrangeAllCollectionsEventEi @ 136 NONAME
	_ZN18HsMenuEventFactory34createRemoveAppFromCollectionEventEii @ 137 NONAME
	_ZN18HsMenuEventFactory36createAddAppsFromCollectionViewEventEii @ 138 NONAME
	_ZN18HsMenuEventFactory38createAddAppsFromApplicationsViewEventEN2Hs15HsSortAttributeEi @ 139 NONAME
	_ZN18HsMenuEventFactory39createOpenCollectionFromAppLibraryEventEiRK7QString @ 140 NONAME
	_ZN19HsMenuDialogFactoryD0Ev @ 141 NONAME
	_ZN19HsMenuDialogFactoryD1Ev @ 142 NONAME
	_ZN19HsMenuDialogFactoryD2Ev @ 143 NONAME
	_ZN19HsMessageBoxWrapper11qt_metacallEN11QMetaObject4CallEiPPv @ 144 NONAME
	_ZN19HsMessageBoxWrapper11qt_metacastEPKc @ 145 NONAME
	_ZN19HsMessageBoxWrapper12setQueryTextERK7QString @ 146 NONAME
	_ZN19HsMessageBoxWrapper14onDialogClosedEi @ 147 NONAME
	_ZN19HsMessageBoxWrapper16staticMetaObjectE @ 148 NONAME DATA 16
	_ZN19HsMessageBoxWrapper19getStaticMetaObjectEv @ 149 NONAME
	_ZN19HsMessageBoxWrapper4showEv @ 150 NONAME
	_ZN19HsMessageBoxWrapper5closeEv @ 151 NONAME
	_ZN19HsMessageBoxWrapper8acceptedEv @ 152 NONAME
	_ZN19HsMessageBoxWrapper8rejectedEv @ 153 NONAME
	_ZN19HsMessageBoxWrapper9setHeaderERK7QString @ 154 NONAME
	_ZN19HsMessageBoxWrapperC1EP7QObject @ 155 NONAME
	_ZN19HsMessageBoxWrapperC2EP7QObject @ 156 NONAME
	_ZN19HsMessageBoxWrapperD0Ev @ 157 NONAME
	_ZN19HsMessageBoxWrapperD1Ev @ 158 NONAME
	_ZN19HsMessageBoxWrapperD2Ev @ 159 NONAME
	_ZN19XQAIWGetImageClient10findImagesERK7QStringRK11QStringListRS3_ @ 160 NONAME
	_ZN19XQAIWGetImageClient11fetchFailedEiRK7QString @ 161 NONAME
	_ZN19XQAIWGetImageClient11qt_metacallEN11QMetaObject4CallEiPPv @ 162 NONAME
	_ZN19XQAIWGetImageClient11qt_metacastEPKc @ 163 NONAME
	_ZN19XQAIWGetImageClient13imageSelectedERK7QString @ 164 NONAME
	_ZN19XQAIWGetImageClient14fetchCompletedERK7QString @ 165 NONAME
	_ZN19XQAIWGetImageClient16requestCompletedERK8QVariant @ 166 NONAME
	_ZN19XQAIWGetImageClient16staticMetaObjectE @ 167 NONAME DATA 16
	_ZN19XQAIWGetImageClient19getStaticMetaObjectEv @ 168 NONAME
	_ZN19XQAIWGetImageClient23imageSelectionCancelledEv @ 169 NONAME
	_ZN19XQAIWGetImageClient5fetchEv @ 170 NONAME
	_ZN19XQAIWGetImageClientC1Ev @ 171 NONAME
	_ZN19XQAIWGetImageClientC2Ev @ 172 NONAME
	_ZN19XQAIWGetImageClientD0Ev @ 173 NONAME
	_ZN19XQAIWGetImageClientD1Ev @ 174 NONAME
	_ZN19XQAIWGetImageClientD2Ev @ 175 NONAME
	_ZN20HsImageFetcherClient11fetchFailedEiRK7QString @ 176 NONAME
	_ZN20HsImageFetcherClient11handleErrorEiRK7QString @ 177 NONAME
	_ZN20HsImageFetcherClient11qt_metacallEN11QMetaObject4CallEiPPv @ 178 NONAME
	_ZN20HsImageFetcherClient11qt_metacastEPKc @ 179 NONAME
	_ZN20HsImageFetcherClient14fetchCompletedERK7QString @ 180 NONAME
	_ZN20HsImageFetcherClient16staticMetaObjectE @ 181 NONAME DATA 16
	_ZN20HsImageFetcherClient19getStaticMetaObjectEv @ 182 NONAME
	_ZN20HsImageFetcherClient5fetchEv @ 183 NONAME
	_ZN20HsImageFetcherClient8handleOkERK8QVariant @ 184 NONAME
	_ZN20HsImageFetcherClientC1EP7QObject @ 185 NONAME
	_ZN20HsImageFetcherClientC2EP7QObject @ 186 NONAME
	_ZN20HsImageFetcherClientD0Ev @ 187 NONAME
	_ZN20HsImageFetcherClientD1Ev @ 188 NONAME
	_ZN20HsImageFetcherClientD2Ev @ 189 NONAME
	_ZN21HsAnchorPointInCenter7convertERK6QRectFRK5QListIS0_ES6_RK7QPointF @ 190 NONAME
	_ZN21HsMenuEventTransition9eventTestEP6QEvent @ 191 NONAME
	_ZN21HsMenuEventTransitionC1EN11HsMenuEvent13OperationTypeEP6QStateS3_ @ 192 NONAME
	_ZN21HsMenuEventTransitionC2EN11HsMenuEvent13OperationTypeEP6QStateS3_ @ 193 NONAME
	_ZN26HsAnchorPointInBottomRight7convertERK6QRectFRK5QListIS0_ES6_RK7QPointF @ 194 NONAME
	_ZN26HsPropertyAnimationWrapper10setForwardEv @ 195 NONAME
	_ZN26HsPropertyAnimationWrapper11qt_metacallEN11QMetaObject4CallEiPPv @ 196 NONAME
	_ZN26HsPropertyAnimationWrapper11qt_metacastEPKc @ 197 NONAME
	_ZN26HsPropertyAnimationWrapper11setBackwardEv @ 198 NONAME
	_ZN26HsPropertyAnimationWrapper11setDurationEi @ 199 NONAME
	_ZN26HsPropertyAnimationWrapper11setEndValueERK8QVariant @ 200 NONAME
	_ZN26HsPropertyAnimationWrapper14setEasingCurveERK12QEasingCurve @ 201 NONAME
	_ZN26HsPropertyAnimationWrapper15setPropertyNameERK10QByteArray @ 202 NONAME
	_ZN26HsPropertyAnimationWrapper15setTargetObjectEP7QObject @ 203 NONAME
	_ZN26HsPropertyAnimationWrapper16staticMetaObjectE @ 204 NONAME DATA 16
	_ZN26HsPropertyAnimationWrapper19getStaticMetaObjectEv @ 205 NONAME
	_ZN26HsPropertyAnimationWrapper4stopEv @ 206 NONAME
	_ZN26HsPropertyAnimationWrapper5startEv @ 207 NONAME
	_ZN26HsPropertyAnimationWrapper8finishedEv @ 208 NONAME
	_ZN26HsPropertyAnimationWrapper9isRunningEv @ 209 NONAME
	_ZN26HsPropertyAnimationWrapperC1EP7QObject @ 210 NONAME
	_ZN26HsPropertyAnimationWrapperC2EP7QObject @ 211 NONAME
	_ZN26HsPropertyAnimationWrapperD0Ev @ 212 NONAME
	_ZN26HsPropertyAnimationWrapperD1Ev @ 213 NONAME
	_ZN26HsPropertyAnimationWrapperD2Ev @ 214 NONAME
	_ZN30HsWidgetPositioningOnWidgetAdd11setInstanceEPS_ @ 215 NONAME
	_ZN30HsWidgetPositioningOnWidgetAdd8instanceEv @ 216 NONAME
	_ZN30HsWidgetPositioningOnWidgetAdd9mInstanceE @ 217 NONAME DATA 4
	_ZN31HsWidgetPositioningOnWidgetMove11setInstanceEPS_ @ 218 NONAME
	_ZN31HsWidgetPositioningOnWidgetMove8instanceEv @ 219 NONAME
	_ZN31HsWidgetPositioningOnWidgetMove9mInstanceE @ 220 NONAME DATA 4
	_ZN38HsWidgetPositioningOnOrientationChange11setInstanceEPS_ @ 221 NONAME
	_ZN38HsWidgetPositioningOnOrientationChange8instanceEv @ 222 NONAME
	_ZN38HsWidgetPositioningOnOrientationChange9mInstanceE @ 223 NONAME DATA 4
	_ZN46HsAdvancedWidgetPositioningOnOrientationChange7convertERK6QRectFRK5QListIS0_ES2_ @ 224 NONAME
	_ZNK10HsSnapLine10metaObjectEv @ 225 NONAME
	_ZNK10HsSnapLine24isFadeInAnimationRunningEv @ 226 NONAME
	_ZNK10HsSnapLine25isFadeOutAnimationRunningEv @ 227 NONAME
	_ZNK11HsMenuEvent4dataEv @ 228 NONAME
	_ZNK11HsMenuEvent9operationEv @ 229 NONAME
	_ZNK15HsPageIndicator10metaObjectEv @ 230 NONAME
	_ZNK15HsPageIndicator15activeItemIndexEv @ 231 NONAME
	_ZNK15HsPageIndicator18isAnimationRunningEv @ 232 NONAME
	_ZNK15HsPageIndicator9itemCountEv @ 233 NONAME
	_ZNK15HsSpinnerDialog10metaObjectEv @ 234 NONAME
	_ZNK15HsTitleResolver10metaObjectEv @ 235 NONAME
	_ZNK16HsTrashBinWidget10metaObjectEv @ 236 NONAME
	_ZNK17HsImageGridWidget10metaObjectEv @ 237 NONAME
	_ZNK19HsMenuDialogFactory12setUpActionsEP12HbMessageBoxRK11QStringList @ 238 NONAME
	_ZNK19HsMenuDialogFactory6createERK7QStringNS_7OptionsE @ 239 NONAME
	_ZNK19HsMessageBoxWrapper10metaObjectEv @ 240 NONAME
	_ZNK19XQAIWGetImageClient10metaObjectEv @ 241 NONAME
	_ZNK20HsImageFetcherClient10metaObjectEv @ 242 NONAME
	_ZNK26HsPropertyAnimationWrapper10metaObjectEv @ 243 NONAME
	_ZNK26HsPropertyAnimationWrapper9isForwardEv @ 244 NONAME
	_ZTI10HsSnapLine @ 245 NONAME
	_ZTI11HsMenuEvent @ 246 NONAME
	_ZTI13HsSnapToLines @ 247 NONAME
	_ZTI15HsPageIndicator @ 248 NONAME
	_ZTI15HsSpinnerDialog @ 249 NONAME
	_ZTI15HsTitleResolver @ 250 NONAME
	_ZTI16HsTrashBinWidget @ 251 NONAME
	_ZTI17HsImageGridWidget @ 252 NONAME
	_ZTI17HsWidgetOrganizer @ 253 NONAME
	_ZTI19HsMenuDialogFactory @ 254 NONAME
	_ZTI19HsMessageBoxWrapper @ 255 NONAME
	_ZTI19XQAIWGetImageClient @ 256 NONAME
	_ZTI20HsImageFetcherClient @ 257 NONAME
	_ZTI21HsAnchorPointInCenter @ 258 NONAME
	_ZTI21HsMenuEventTransition @ 259 NONAME
	_ZTI26HsAnchorPointInBottomRight @ 260 NONAME
	_ZTI26HsPropertyAnimationWrapper @ 261 NONAME
	_ZTI30HsWidgetPositioningOnWidgetAdd @ 262 NONAME
	_ZTI31HsWidgetPositioningOnWidgetMove @ 263 NONAME
	_ZTI38HsWidgetPositioningOnOrientationChange @ 264 NONAME
	_ZTI46HsAdvancedWidgetPositioningOnOrientationChange @ 265 NONAME
	_ZTV10HsSnapLine @ 266 NONAME
	_ZTV11HsMenuEvent @ 267 NONAME
	_ZTV13HsSnapToLines @ 268 NONAME
	_ZTV15HsPageIndicator @ 269 NONAME
	_ZTV15HsSpinnerDialog @ 270 NONAME
	_ZTV15HsTitleResolver @ 271 NONAME
	_ZTV16HsTrashBinWidget @ 272 NONAME
	_ZTV17HsImageGridWidget @ 273 NONAME
	_ZTV17HsWidgetOrganizer @ 274 NONAME
	_ZTV19HsMenuDialogFactory @ 275 NONAME
	_ZTV19HsMessageBoxWrapper @ 276 NONAME
	_ZTV19XQAIWGetImageClient @ 277 NONAME
	_ZTV20HsImageFetcherClient @ 278 NONAME
	_ZTV21HsAnchorPointInCenter @ 279 NONAME
	_ZTV21HsMenuEventTransition @ 280 NONAME
	_ZTV26HsAnchorPointInBottomRight @ 281 NONAME
	_ZTV26HsPropertyAnimationWrapper @ 282 NONAME
	_ZTV46HsAdvancedWidgetPositioningOnOrientationChange @ 283 NONAME
	_ZThn16_N15HsPageIndicatorD0Ev @ 284 NONAME
	_ZThn16_N15HsPageIndicatorD1Ev @ 285 NONAME
	_ZThn16_N15HsSpinnerDialogD0Ev @ 286 NONAME
	_ZThn16_N15HsSpinnerDialogD1Ev @ 287 NONAME
	_ZThn16_N16HsTrashBinWidgetD0Ev @ 288 NONAME
	_ZThn16_N16HsTrashBinWidgetD1Ev @ 289 NONAME
	_ZThn16_N17HsImageGridWidgetD0Ev @ 290 NONAME
	_ZThn16_N17HsImageGridWidgetD1Ev @ 291 NONAME
	_ZThn8_N10HsSnapLineD0Ev @ 292 NONAME
	_ZThn8_N10HsSnapLineD1Ev @ 293 NONAME
	_ZThn8_N15HsPageIndicatorD0Ev @ 294 NONAME
	_ZThn8_N15HsPageIndicatorD1Ev @ 295 NONAME
	_ZThn8_N15HsSpinnerDialogD0Ev @ 296 NONAME
	_ZThn8_N15HsSpinnerDialogD1Ev @ 297 NONAME
	_ZThn8_N16HsTrashBinWidgetD0Ev @ 298 NONAME
	_ZThn8_N16HsTrashBinWidgetD1Ev @ 299 NONAME
	_ZThn8_N17HsImageGridWidgetD0Ev @ 300 NONAME
	_ZThn8_N17HsImageGridWidgetD1Ev @ 301 NONAME

