EXPORTS
	_ZN11CXnDocument12CreateAppUiLEv @ 1 NONAME
	_ZN11CXnDocument3UidEv @ 2 NONAME
	_ZN11CXnDocumentC1ER15CEikApplication4TUid @ 3 NONAME
	_ZN11CXnDocumentC2ER15CEikApplication4TUid @ 4 NONAME
	_ZN11CXnDocumentD0Ev @ 5 NONAME
	_ZN11CXnDocumentD1Ev @ 6 NONAME
	_ZN11CXnDocumentD2Ev @ 7 NONAME
	_ZN11CXnProperty11FloatValueLEv @ 8 NONAME
	_ZN11CXnProperty11StringValueEv @ 9 NONAME
	_ZN11CXnProperty12StringValueLEv @ 10 NONAME
	_ZN11CXnProperty4NewLEP14CXnDomProperty @ 11 NONAME
	_ZN11CXnProperty4NewLERK6TDesC8P19CXnDomPropertyValueR16CXnDomStringPool @ 12 NONAME
	_ZN11CXnProperty4NewLERK6TDesC8S2_N19CXnDomPropertyValue19TPrimitiveValueTypeER16CXnDomStringPool @ 13 NONAME
	_ZN11CXnProperty4NewLERK6TDesC8dN19CXnDomPropertyValue19TPrimitiveValueTypeER16CXnDomStringPool @ 14 NONAME
	_ZN11CXnProperty6CloneLEv @ 15 NONAME
	_ZN11CXnProperty8PropertyEv @ 16 NONAME
	_ZN12CXnComponent10ConstructLEv @ 17 NONAME
	_ZN12CXnComponent14ControlAdapterEv @ 18 NONAME
	_ZN12CXnComponent14MakeInterfaceLERK6TDesC8 @ 19 NONAME
	_ZN12CXnComponent17SetControlAdapterEP17CXnControlAdapter @ 20 NONAME
	_ZN12CXnComponent18ExitPowerSaveModeLEv @ 21 NONAME
	_ZN12CXnComponent19EnterPowerSaveModeLEv @ 22 NONAME
	_ZN12CXnComponent4NewLEv @ 23 NONAME
	_ZN12CXnComponent4NodeEv @ 24 NONAME
	_ZN12CXnComponent7SetNodeER15CXnNodePluginIf @ 25 NONAME
	_ZN12CXnComponentC1Ev @ 26 NONAME
	_ZN12CXnComponentC2Ev @ 27 NONAME
	_ZN12CXnComponentD0Ev @ 28 NONAME
	_ZN12CXnComponentD1Ev @ 29 NONAME
	_ZN12CXnComponentD2Ev @ 30 NONAME
	_ZN12CXnNodeAppIf10BorderRectEv @ 31 NONAME
	_ZN12CXnNodeAppIf10IsStateSetERK6TDesC8 @ 32 NONAME
	_ZN12CXnNodeAppIf10MarginRectEv @ 33 NONAME
	_ZN12CXnNodeAppIf10SetPCDataLERK6TDesC8 @ 34 NONAME
	_ZN12CXnNodeAppIf11PaddingRectEv @ 35 NONAME
	_ZN12CXnNodeAppIf11UnsetStateLERK6TDesC8 @ 36 NONAME
	_ZN12CXnNodeAppIf12SetPropertyLEP11CXnProperty @ 37 NONAME
	_ZN12CXnNodeAppIf13HideTooltipsLEv @ 38 NONAME
	_ZN12CXnNodeAppIf13ShowTooltipsLEv @ 39 NONAME
	_ZN12CXnNodeAppIf14MakeInterfaceLERK6TDesC8 @ 40 NONAME
	_ZN12CXnNodeAppIf17SetPropertyArrayLEP13RPointerArrayI11CXnPropertyE @ 41 NONAME
	_ZN12CXnNodeAppIf4RectEv @ 42 NONAME
	_ZN12CXnNodeAppIf4TypeEv @ 43 NONAME
	_ZN12CXnNodeAppIf9ChildrenLEv @ 44 NONAME
	_ZN12CXnNodeAppIf9NamespaceEv @ 45 NONAME
	_ZN12CXnNodeAppIf9SetStateLERK6TDesC8 @ 46 NONAME
	_ZN12CXnNodeAppIf9UiEngineLEv @ 47 NONAME
	_ZN14CXnApplication15CreateDocumentLEv @ 48 NONAME
	_ZN14CXnApplicationC1E4TUid @ 49 NONAME
	_ZN14CXnApplicationC2E4TUid @ 50 NONAME
	_ZN14CXnApplicationD0Ev @ 51 NONAME
	_ZN14CXnApplicationD1Ev @ 52 NONAME
	_ZN14CXnApplicationD2Ev @ 53 NONAME
	_ZN15CXnAppUiAdapter10ConstructLEv @ 54 NONAME
	_ZN15CXnAppUiAdapter15SetOnlineStateLER13RPointerArrayI12CXnNodeAppIfE @ 55 NONAME
	_ZN15CXnAppUiAdapter16DynInitMenuItemLERK7TDesC16P13RPointerArrayI12CXnNodeAppIfE @ 56 NONAME
	_ZN15CXnAppUiAdapter16HandlePageSwitchEv @ 57 NONAME
	_ZN15CXnAppUiAdapter16LoadDataPluginsLER13RPointerArrayI12CXnNodeAppIfE @ 58 NONAME
	_ZN15CXnAppUiAdapter18HandleXuikonEventLER12CXnNodeAppIfS1_R10CXnDomNodeS3_ @ 59 NONAME
	_ZN15CXnAppUiAdapter19DestroyDataPluginsLER13RPointerArrayI12CXnNodeAppIfE @ 60 NONAME
	_ZN15CXnAppUiAdapter21HandleResourceChangeLEi @ 61 NONAME
	_ZN15CXnAppUiAdapter9UiEngineLEv @ 62 NONAME
	_ZN15CXnAppUiAdapterC1E4TUid @ 63 NONAME
	_ZN15CXnAppUiAdapterC2E4TUid @ 64 NONAME
	_ZN15CXnAppUiAdapterD0Ev @ 65 NONAME
	_ZN15CXnAppUiAdapterD1Ev @ 66 NONAME
	_ZN15CXnAppUiAdapterD2Ev @ 67 NONAME
	_ZN15CXnNodePluginIf10BorderRectEv @ 68 NONAME
	_ZN15CXnNodePluginIf10MarginRectEv @ 69 NONAME
	_ZN15CXnNodePluginIf10SetPCDataLERK6TDesC8 @ 70 NONAME
	_ZN15CXnNodePluginIf11PaddingRectEv @ 71 NONAME
	_ZN15CXnNodePluginIf11UnsetStateLERK6TDesC8 @ 72 NONAME
	_ZN15CXnNodePluginIf11VisibilityLEv @ 73 NONAME
	_ZN15CXnNodePluginIf12GridColumnsLEv @ 74 NONAME
	_ZN15CXnNodePluginIf12SetPropertyLEP11CXnProperty @ 75 NONAME
	_ZN15CXnNodePluginIf12ViewNodeImplEv @ 76 NONAME
	_ZN15CXnNodePluginIf12VisibleRowsLEv @ 77 NONAME
	_ZN15CXnNodePluginIf13SetBorderRectERK5TRect @ 78 NONAME
	_ZN15CXnNodePluginIf13SetMarginRectERK5TRect @ 79 NONAME
	_ZN15CXnNodePluginIf14IsFocusedStateEv @ 80 NONAME
	_ZN15CXnNodePluginIf14MakeInterfaceLERK6TDesC8 @ 81 NONAME
	_ZN15CXnNodePluginIf14SetPaddingRectERK5TRect @ 82 NONAME
	_ZN15CXnNodePluginIf16FocusHorLoopingLEv @ 83 NONAME
	_ZN15CXnNodePluginIf16FocusVerLoopingLEv @ 84 NONAME
	_ZN15CXnNodePluginIf16GridOrientationLEv @ 85 NONAME
	_ZN15CXnNodePluginIf16SetHandleTooltipEi @ 86 NONAME
	_ZN15CXnNodePluginIf16SetLayoutCapableEi @ 87 NONAME
	_ZN15CXnNodePluginIf17ComponentNodeImplEv @ 88 NONAME
	_ZN15CXnNodePluginIf17GridHorDirectionLEv @ 89 NONAME
	_ZN15CXnNodePluginIf17GridVerDirectionLEv @ 90 NONAME
	_ZN15CXnNodePluginIf19GridScrollBarWidthLEv @ 91 NONAME
	_ZN15CXnNodePluginIf19ReportTriggerEventLERK6TDesC8S2_S2_ @ 92 NONAME
	_ZN15CXnNodePluginIf20GridScrollBarMarginLEv @ 93 NONAME
	_ZN15CXnNodePluginIf31SetPropertyWithoutNotificationLEP11CXnProperty @ 94 NONAME
	_ZN15CXnNodePluginIf3IdLEv @ 95 NONAME
	_ZN15CXnNodePluginIf4RectEv @ 96 NONAME
	_ZN15CXnNodePluginIf4RefLEv @ 97 NONAME
	_ZN15CXnNodePluginIf4TypeEv @ 98 NONAME
	_ZN15CXnNodePluginIf5PathLEv @ 99 NONAME
	_ZN15CXnNodePluginIf6AppIfLEv @ 100 NONAME
	_ZN15CXnNodePluginIf6LabelLEv @ 101 NONAME
	_ZN15CXnNodePluginIf7SetRectERK5TRect @ 102 NONAME
	_ZN15CXnNodePluginIf8DisplayLEv @ 103 NONAME
	_ZN15CXnNodePluginIf9AddChildLEPS_ @ 104 NONAME
	_ZN15CXnNodePluginIf9ChildrenLEv @ 105 NONAME
	_ZN15CXnNodePluginIf9MaskPathLEv @ 106 NONAME
	_ZN15CXnNodePluginIf9NamespaceEv @ 107 NONAME
	_ZN15CXnNodePluginIf9SetDirtyLEv @ 108 NONAME
	_ZN15CXnNodePluginIf9SetStateLERK6TDesC8 @ 109 NONAME
	_ZN15CXnNodePluginIf9UiEngineLEv @ 110 NONAME
	_ZN15CXnUiEngineImpl14EnableRenderUiEPv @ 111 NONAME
	_ZN16CXnViewsNodeImpl10ConstructLEP7CXnType @ 112 NONAME
	_ZN16CXnViewsNodeImpl12SetComponentEP12CXnComponent @ 113 NONAME
	_ZN16CXnViewsNodeImpl4NewLEP7CXnType @ 114 NONAME
	_ZN16CXnViewsNodeImpl9ComponentEv @ 115 NONAME
	_ZN16CXnViewsNodeImplC1Ev @ 116 NONAME
	_ZN16CXnViewsNodeImplC2Ev @ 117 NONAME
	_ZN16CXnViewsNodeImplD0Ev @ 118 NONAME
	_ZN16CXnViewsNodeImplD1Ev @ 119 NONAME
	_ZN16CXnViewsNodeImplD2Ev @ 120 NONAME
	_ZN16MXnNodePredicate5MatchER7CXnNode @ 121 NONAME
	_ZN16MXnNodePredicateC1Ev @ 122 NONAME
	_ZN16MXnNodePredicateC2Ev @ 123 NONAME
	_ZN16MXnNodePredicateD0Ev @ 124 NONAME
	_ZN16MXnNodePredicateD1Ev @ 125 NONAME
	_ZN16MXnNodePredicateD2Ev @ 126 NONAME
	_ZN16TXnUiEngineAppIf10ActiveViewEv @ 127 NONAME
	_ZN16TXnUiEngineAppIf10IsEditModeEv @ 128 NONAME
	_ZN16TXnUiEngineAppIf10StringPoolEv @ 129 NONAME
	_ZN16TXnUiEngineAppIf11FocusedNodeEv @ 130 NONAME
	_ZN16TXnUiEngineAppIf11SetUiEngineEP11CXnUiEngine @ 131 NONAME
	_ZN16TXnUiEngineAppIf12RefreshMenuLEv @ 132 NONAME
	_ZN16TXnUiEngineAppIf13ActivateViewLER12CXnNodeAppIf @ 133 NONAME
	_ZN16TXnUiEngineAppIf13FindNodeByIdLERK6TDesC8S2_ @ 134 NONAME
	_ZN16TXnUiEngineAppIf13FindNodeByIdLERK7TDesC16S2_ @ 135 NONAME
	_ZN16TXnUiEngineAppIf16FindNodeByClassLERK6TDesC8S2_ @ 136 NONAME
	_ZN16TXnUiEngineAppIf16FindNodeByClassLERK7TDesC16S2_ @ 137 NONAME
	_ZN16TXnUiEngineAppIf16GetThemeResourceERK7TDesC16R5RFile @ 138 NONAME
	_ZN16TXnUiEngineAppIf16IsMenuDisplayingEv @ 139 NONAME
	_ZN16TXnUiEngineAppIf19GetPluginNodeArrayLER13RPointerArrayI12CXnNodeAppIfE @ 140 NONAME
	_ZN16TXnUiEngineAppIf23FindContentSourceNodesLERK6TDesC8 @ 141 NONAME
	_ZN16TXnUiEngineAppIf9RenderUILEP12CXnNodeAppIf @ 142 NONAME
	_ZN16TXnUiEngineAppIf9RootNodeLEv @ 143 NONAME
	_ZN17CXnControlAdapter10ConstructLER15CXnNodePluginIf @ 144 NONAME
	_ZN17CXnControlAdapter10LoadBitmapERK7TDesC16 @ 145 NONAME
	_ZN17CXnControlAdapter10SetVisibleEi @ 146 NONAME
	_ZN17CXnControlAdapter11SizeChangedEv @ 147 NONAME
	_ZN17CXnControlAdapter11SkinChangedEv @ 148 NONAME
	_ZN17CXnControlAdapter12FocusChangedE8TDrawNow @ 149 NONAME
	_ZN17CXnControlAdapter12SetComponentEP12CXnComponent @ 150 NONAME
	_ZN17CXnControlAdapter14ContentBitmapsERP10CFbsBitmapS2_ @ 151 NONAME
	_ZN17CXnControlAdapter14OfferKeyEventLERK9TKeyEvent10TEventCode @ 152 NONAME
	_ZN17CXnControlAdapter15SetLocalUiZoomLE10TAknUiZoom @ 153 NONAME
	_ZN17CXnControlAdapter16GetBitmapAndMaskERK7TDesC16S2_RP10CFbsBitmapS5_ @ 154 NONAME
	_ZN17CXnControlAdapter17SetContentBitmapsEP10CFbsBitmapS1_ @ 155 NONAME
	_ZN17CXnControlAdapter17SetContentBitmapsERK7TDesC16S2_ @ 156 NONAME
	_ZN17CXnControlAdapter18ExitPowerSaveModeLENS_10TModeEventE @ 157 NONAME
	_ZN17CXnControlAdapter18ResetStylusCounterEv @ 158 NONAME
	_ZN17CXnControlAdapter19EnterPowerSaveModeLENS_10TModeEventE @ 159 NONAME
	_ZN17CXnControlAdapter19HandleControlEventLEP11CCoeControlN19MCoeControlObserver9TCoeEventE @ 160 NONAME
	_ZN17CXnControlAdapter19HandleLongTapEventLERK6TPointS2_ @ 161 NONAME
	_ZN17CXnControlAdapter19HandlePointerEventLERK13TPointerEvent @ 162 NONAME
	_ZN17CXnControlAdapter20DoExitPowerSaveModeLENS_10TModeEventE @ 163 NONAME
	_ZN17CXnControlAdapter21DoEnterPowerSaveModeLENS_10TModeEventE @ 164 NONAME
	_ZN17CXnControlAdapter21HandlePropertyChangeLEP11CXnProperty @ 165 NONAME
	_ZN17CXnControlAdapter22EnableLongTapAnimationEi @ 166 NONAME
	_ZN17CXnControlAdapter23DoHandlePropertyChangeLEP11CXnProperty @ 167 NONAME
	_ZN17CXnControlAdapter23MeasureAdaptiveContentLERK5TSize @ 168 NONAME
	_ZN17CXnControlAdapter26HandleScreenDeviceChangedLEv @ 169 NONAME
	_ZN17CXnControlAdapter4NewLER15CXnNodePluginIf @ 170 NONAME
	_ZN17CXnControlAdapter8SetBlankEi @ 171 NONAME
	_ZN17CXnControlAdapter9ComponentEv @ 172 NONAME
	_ZN17CXnControlAdapterC1Ev @ 173 NONAME
	_ZN17CXnControlAdapterC2Ev @ 174 NONAME
	_ZN17CXnControlAdapterD0Ev @ 175 NONAME
	_ZN17CXnControlAdapterD1Ev @ 176 NONAME
	_ZN17CXnControlAdapterD2Ev @ 177 NONAME
	_ZN19MXnComponentFactory16MakeXnComponentLER15CXnNodePluginIfRP12CXnComponent @ 178 NONAME
	_ZN19MXnComponentFactory18CreateXnComponentLER15CXnNodePluginIfRP12CXnComponent @ 179 NONAME
	_ZN19MXnComponentFactory21MakeXnControlAdapterLER15CXnNodePluginIfP17CXnControlAdapter @ 180 NONAME
	_ZN19MXnComponentFactory26DoesNodeNeedComponentImplLERK6TDesC8 @ 181 NONAME
	_ZN19MXnComponentFactoryC2Ev @ 182 NONAME
	_ZN19MXnComponentFactoryD0Ev @ 183 NONAME
	_ZN19MXnComponentFactoryD1Ev @ 184 NONAME
	_ZN19MXnComponentFactoryD2Ev @ 185 NONAME
	_ZN19TXnUiEnginePluginIf10StringPoolEv @ 186 NONAME
	_ZN19TXnUiEnginePluginIf11PluginNodeLEP15CXnNodePluginIf @ 187 NONAME
	_ZN19TXnUiEnginePluginIf12EnableSwipeLEi @ 188 NONAME
	_ZN19TXnUiEnginePluginIf12FocusVisibleEv @ 189 NONAME
	_ZN19TXnUiEnginePluginIf12FocusedNodeLEv @ 190 NONAME
	_ZN19TXnUiEnginePluginIf13ActivateViewLER15CXnNodePluginIf @ 191 NONAME
	_ZN19TXnUiEnginePluginIf13AddDirtyNodeLER15CXnNodePluginIf @ 192 NONAME
	_ZN19TXnUiEnginePluginIf13FindNodeByIdLERK6TDesC8S2_ @ 193 NONAME
	_ZN19TXnUiEnginePluginIf13FindNodeByIdLERK7TDesC16S2_ @ 194 NONAME
	_ZN19TXnUiEnginePluginIf13SwipeEnabledLEv @ 195 NONAME
	_ZN19TXnUiEnginePluginIf14SetFocusedNodeEP15CXnNodePluginIf @ 196 NONAME
	_ZN19TXnUiEnginePluginIf16FindNodeByClassLERK7TDesC16 @ 197 NONAME
	_ZN19TXnUiEnginePluginIf16IsMenuDisplayingEv @ 198 NONAME
	_ZN19TXnUiEnginePluginIf16ScreenDeviceSizeEv @ 199 NONAME
	_ZN19TXnUiEnginePluginIf16SetFocusVisibleLEi @ 200 NONAME
	_ZN19TXnUiEnginePluginIf17DisableRenderUiLCEv @ 201 NONAME
	_ZN19TXnUiEnginePluginIf18IsDialogDisplayingEv @ 202 NONAME
	_ZN19TXnUiEnginePluginIf18VerticalTwipValueLEP11CXnPropertyi @ 203 NONAME
	_ZN19TXnUiEnginePluginIf19VerticalPixelValueLEP11CXnPropertyi @ 204 NONAME
	_ZN19TXnUiEnginePluginIf20HorizontalTwipValueLEP11CXnPropertyi @ 205 NONAME
	_ZN19TXnUiEnginePluginIf21HorizontalPixelValueLEP11CXnPropertyi @ 206 NONAME
	_ZN19TXnUiEnginePluginIf22DeactivateFocusedNodeLEv @ 207 NONAME
	_ZN19TXnUiEnginePluginIf26RestorePreviousFocusedNodeEv @ 208 NONAME
	_ZN19TXnUiEnginePluginIf8EditModeEv @ 209 NONAME
	_ZN19TXnUiEnginePluginIf9LayoutUILEP15CXnNodePluginIf @ 210 NONAME
	_ZN19TXnUiEnginePluginIf9RenderUILEP15CXnNodePluginIf @ 211 NONAME
	_ZN19TXnUiEnginePluginIf9ResourcesEv @ 212 NONAME
	_ZN19TXnUiEnginePluginIf9RootNodeLEv @ 213 NONAME
	_ZN19TXnUiEnginePluginIf9ShowFocusEv @ 214 NONAME
	_ZN20CXnComponentNodeImpl10ConstructLEP7CXnType @ 215 NONAME
	_ZN20CXnComponentNodeImpl12SetComponentEP12CXnComponent @ 216 NONAME
	_ZN20CXnComponentNodeImpl14MakeInterfaceLERK6TDesC8 @ 217 NONAME
	_ZN20CXnComponentNodeImpl25SetComponentNeedsCreationEi @ 218 NONAME
	_ZN20CXnComponentNodeImpl4NewLEP7CXnType @ 219 NONAME
	_ZN20CXnComponentNodeImpl9ComponentEv @ 220 NONAME
	_ZN20CXnComponentNodeImplC1Ev @ 221 NONAME
	_ZN20CXnComponentNodeImplC2Ev @ 222 NONAME
	_ZN20CXnComponentNodeImplD0Ev @ 223 NONAME
	_ZN20CXnComponentNodeImplD1Ev @ 224 NONAME
	_ZN20CXnComponentNodeImplD2Ev @ 225 NONAME
	_ZN8CXnUtils11CreateFontLER15CXnNodePluginIfRP5CFontRi @ 226 NONAME
	_ZN8CXnUtils11CreateFontLERK7TDesC16i10TFontStyleRP5CFontRi @ 227 NONAME
	_ZN8CXnUtils11GetRgbValueER4TRgbRK6TDesC8 @ 228 NONAME
	_ZN8CXnUtils11StripQuotesERP7HBufC16 @ 229 NONAME
	_ZN8CXnUtils12FindResourceER12CArrayPtrSegI11CXnResourceERK7TDesC16Ri @ 230 NONAME
	_ZN8CXnUtils12ScaleBitmapLERK5TRectP10CFbsBitmapS4_ @ 231 NONAME
	_ZN8CXnUtils13TextAlignmentER15CXnNodePluginIf @ 232 NONAME
	_ZN8CXnUtils15ConvertHslToRgbEiii @ 233 NONAME
	_ZN8CXnUtils18CollapseWhiteSpaceER15CXnNodePluginIfR6TDes16 @ 234 NONAME
	_ZN8CXnUtils18ResolveSkinItemIDLERK7TDesC16R11TAknsItemIDRi @ 235 NONAME
	_ZN8CXnUtils20HandlePowerSaveModeLEP7CXnNodeii @ 236 NONAME
	_ZNK11CXnProperty7EqualsLERS_ @ 237 NONAME
	_ZNK12CXnNodeAppIf12GetPropertyLER11CXnProperty @ 238 NONAME
	_ZNK12CXnNodeAppIf12GetPropertyLERK6TDesC8 @ 239 NONAME
	_ZNK12CXnNodeAppIf19InternalDomNodeTypeEv @ 240 NONAME
	_ZNK12CXnNodeAppIf7ParentLEv @ 241 NONAME
	_ZNK12CXnNodeAppIf9GetPCDataEv @ 242 NONAME
	_ZNK14CXnApplication9AppDllUidEv @ 243 NONAME
	_ZNK15CXnAppUiAdapter4ViewEv @ 244 NONAME
	_ZNK15CXnNodePluginIf12GetPropertyLER11CXnProperty @ 245 NONAME
	_ZNK15CXnNodePluginIf12GetPropertyLERK6TDesC8 @ 246 NONAME
	_ZNK15CXnNodePluginIf7ControlEv @ 247 NONAME
	_ZNK15CXnNodePluginIf7ParentLEv @ 248 NONAME
	_ZNK15CXnNodePluginIf9GetPCDataEv @ 249 NONAME
	_ZNK16TXnUiEngineAppIf14WidgetsVisibleEv @ 250 NONAME
	_ZNK17CXnControlAdapter15LongTapDetectorEv @ 251 NONAME
	_ZNK17CXnControlAdapter16ComponentControlEi @ 252 NONAME
	_ZNK17CXnControlAdapter16DrawContentImageEv @ 253 NONAME
	_ZNK17CXnControlAdapter16IsDrawingAllowedEv @ 254 NONAME
	_ZNK17CXnControlAdapter22CountComponentControlsEv @ 255 NONAME
	_ZNK17CXnControlAdapter4DrawERK5TRect @ 256 NONAME
	_ZNK17CXnControlAdapter4DrawERK5TRectR9CWindowGc @ 257 NONAME
	_ZNK19TXnUiEnginePluginIf14WidgetsVisibleEv @ 258 NONAME
	_ZNK19TXnUiEnginePluginIf9HitRegionEv @ 259 NONAME
	_ZNK20CXnComponentNodeImpl25DoesComponentNeedCreationEv @ 260 NONAME
	_ZTI11CXnDocument @ 261 NONAME
	_ZTI11CXnProperty @ 262 NONAME
	_ZTI12CXnComponent @ 263 NONAME
	_ZTI14CXnApplication @ 264 NONAME
	_ZTI15CXnAppUiAdapter @ 265 NONAME
	_ZTI16CXnViewsNodeImpl @ 266 NONAME
	_ZTI16MXnNodePredicate @ 267 NONAME
	_ZTI17CXnControlAdapter @ 268 NONAME
	_ZTI18CXnListQueryDialog @ 269 NONAME
	_ZTI19MXnComponentFactory @ 270 NONAME
	_ZTI20CXnComponentNodeImpl @ 271 NONAME
	_ZTI27CXnNodeBreadthFirstIteratorI7CXnNodeE @ 272 NONAME
	_ZTIN21CXnControlAdapterImpl13TIconProviderE @ 273 NONAME
	_ZTV11CXnDocument @ 274 NONAME
	_ZTV11CXnProperty @ 275 NONAME
	_ZTV12CXnComponent @ 276 NONAME
	_ZTV14CXnApplication @ 277 NONAME
	_ZTV15CXnAppUiAdapter @ 278 NONAME
	_ZTV16CXnViewsNodeImpl @ 279 NONAME
	_ZTV16MXnNodePredicate @ 280 NONAME
	_ZTV17CXnControlAdapter @ 281 NONAME
	_ZTV18CXnListQueryDialog @ 282 NONAME
	_ZTV19MXnComponentFactory @ 283 NONAME
	_ZTV20CXnComponentNodeImpl @ 284 NONAME
	_ZTV27CXnNodeBreadthFirstIteratorI7CXnNodeE @ 285 NONAME
	_ZTVN21CXnControlAdapterImpl13TIconProviderE @ 286 NONAME
	_ZThn52_N17CXnControlAdapter19HandleControlEventLEP11CCoeControlN19MCoeControlObserver9TCoeEventE @ 287 NONAME
	_ZThn60_N17CXnControlAdapter19HandleLongTapEventLERK6TPointS2_ @ 288 NONAME
	_ZN15CXnAppUiAdapter20HandleEnterEditModeLEi @ 289 NONAME

