EXPORTS
	_ZN10CHnMdModel10LoadSuiteLERK7TDesC16P20CLiwGenericParamList @ 1 NONAME
	_ZN10CHnMdModel12GetLastSuiteEv @ 2 NONAME
	_ZN10CHnMdModel14GetCurrentUriLER6TDes16 @ 3 NONAME
	_ZN10CHnMdModel15DeleteLastSuiteEv @ 4 NONAME
	_ZN10CHnMdModel15QueueForegroundENS_30TForegroundGainTriggeringEventE @ 5 NONAME
	_ZN10CHnMdModel16HandleBackEventLEP22CHnSuiteModelContainerRK7TDesC16i @ 6 NONAME
	_ZN10CHnMdModel17IgnoreEvaluationsEi @ 7 NONAME
	_ZN10CHnMdModel17SuiteModelExistsLERK6TDesC8 @ 8 NONAME
	_ZN10CHnMdModel18GetSuiteParametersEi @ 9 NONAME
	_ZN10CHnMdModel19ReleaseLocalizationEv @ 10 NONAME
	_ZN10CHnMdModel19ReloadLocalizationLEv @ 11 NONAME
	_ZN10CHnMdModel27HandleSisInstallationEventLEP22CHnSuiteModelContainer @ 12 NONAME
	_ZN10CHnMdModel4NewLEP23MHnMdModelEventObserverP22CHnSuiteModelContainer @ 13 NONAME
	_ZN10CHnMdModel5NewLCEP23MHnMdModelEventObserverP22CHnSuiteModelContainer @ 14 NONAME
	_ZN10CHnMdModel8SetModeLE7TMdMode @ 15 NONAME
	_ZN10CHnMdModel9EvaluateLER9CHnFilter @ 16 NONAME
	_ZN10CHnMdModel9EvaluateLEv @ 17 NONAME
	_ZN10CHnMdSuite18GetSuiteParametersEv @ 18 NONAME
	_ZN10CHnMdSuite19SetSuiteParametersLER20CLiwGenericParamList @ 19 NONAME
	_ZN10CHnMdSuite26GetAlternativeWidgetNumberEv @ 20 NONAME
	_ZN10CHnMdSuite9SuiteNameEv @ 21 NONAME
	_ZN19CHnXmlModelProvider12ReloadModelLEv @ 22 NONAME
	_ZN19CHnXmlModelProvider4NewLEv @ 23 NONAME
	_ZN19CHnXmlModelProvider5NewLCEv @ 24 NONAME
	_ZN19CHnXmlModelProvider9GetModelLERK7TDesC16R15RXmlEngDocument @ 25 NONAME
	_ZN19CHnXmlModelProviderD0Ev @ 26 NONAME
	_ZN19CHnXmlModelProviderD1Ev @ 27 NONAME
	_ZN19CHnXmlModelProviderD2Ev @ 28 NONAME
	_ZN7HnUtils10ReadFileLCERK7TDesC16 @ 29 NONAME
	_ZN7HnUtils12LocateFileLCERK7TDesC16 @ 30 NONAME
	_ZN7HnUtils13SetAttributeLERK14TXmlEngElementR5RBuf8 @ 31 NONAME
	_ZN7HnUtils13SetAttributeLERK14TXmlEngElementRK6TDesC8R5RBuf8 @ 32 NONAME
	_ZN7HnUtils15GetColumnTextLCEiRK6TDesC85TChar @ 33 NONAME
	_ZN7HnUtils24GetColumnTextColumnCountERK6TDesC85TChar @ 34 NONAME
	_ZN7HnUtils27LocateNearestLanguageFileLCERK7TDesC16 @ 35 NONAME
	_ZN7HnUtils9ReadFileLERK7TDesC16 @ 36 NONAME
	_ZN9CHnFilter10SetSuiteIdEi @ 37 NONAME
	_ZN9CHnFilter13AppendItemIdLEP9CHnItemId @ 38 NONAME
	_ZN9CHnFilter13SetSuiteNameLERK7TDesC16 @ 39 NONAME
	_ZN9CHnFilter17SetEvaluateSuiteLEi @ 40 NONAME
	_ZN9CHnFilter4NewLEv @ 41 NONAME
	_ZN9CHnFilter5NewLCEv @ 42 NONAME
	_ZN9CHnItemId4NewLERK7TDesC16S2_ @ 43 NONAME
	_ZN9CHnItemId5NewLCERK7TDesC16S2_ @ 44 NONAME
	_ZN9CHnItemId7UpdateLERKS_ @ 45 NONAME
	_ZN9CHnMdItem3UidEv @ 46 NONAME
	_ZN9CHnMdItem4TypeEv @ 47 NONAME
	_ZN9CHnMdItem8TemplateEv @ 48 NONAME
	_ZNK10CHnMdModel18IsForegroundQueuedEv @ 49 NONAME
	_ZNK9CHnItemId2IdEv @ 50 NONAME
	_ZNK9CHnItemId7CompareERKS_ @ 51 NONAME
	_ZNK9CHnItemId9SuiteNameEv @ 52 NONAME

