EXPORTS
	?SetHighlightVisibilityL@CMmWidgetContainer@@UAEXH@Z @ 1 NONAME ; void CMmWidgetContainer::SetHighlightVisibilityL(int)
	?SetDefaultHighlightL@CMmGridContainer@@UAEXH@Z @ 2 NONAME ; void CMmGridContainer::SetDefaultHighlightL(int)
	?HandleZoomChanged@CMmWidgetContainer@@QAEXW4TAknUiZoom@@@Z @ 3 NONAME ; void CMmWidgetContainer::HandleZoomChanged(enum TAknUiZoom)
	?PrepareForGarbage@CMmWidgetContainer@@QAEXXZ @ 4 NONAME ; void CMmWidgetContainer::PrepareForGarbage(void)
	?GetPreviousHighlight@CMmWidgetContainer@@UAEHXZ @ 5 NONAME ; int CMmWidgetContainer::GetPreviousHighlight(void)
	?HandleItemAdditionL@CMmWidgetContainer@@UAEXXZ @ 6 NONAME ; void CMmWidgetContainer::HandleItemAdditionL(void)
	?NewLC@CMmTemplateLibrary@@SAPAV1@XZ @ 7 NONAME ; class CMmTemplateLibrary * CMmTemplateLibrary::NewLC(void)
	?IsDraggable@CMmWidgetContainer@@QAEHXZ @ 8 NONAME ; int CMmWidgetContainer::IsDraggable(void)
	?HandleItemRemovalL@CMmWidgetContainer@@UAEXXZ @ 9 NONAME ; void CMmWidgetContainer::HandleItemRemovalL(void)
	?NumberOfItemsChangedL@CMmWidgetContainer@@QAEXW4TItemsChangeType@@@Z @ 10 NONAME ; void CMmWidgetContainer::NumberOfItemsChangedL(enum TItemsChangeType)
	?RestoreWidgetPosition@CMmWidgetContainer@@QAEXXZ @ 11 NONAME ; void CMmWidgetContainer::RestoreWidgetPosition(void)
	?NewL@CMmTemplateLibrary@@SAPAV1@XZ @ 12 NONAME ; class CMmTemplateLibrary * CMmTemplateLibrary::NewL(void)
	?NewL@CMmHighlightTimer@@SAPAV1@PAVCMmWidgetContainer@@@Z @ 13 NONAME ; class CMmHighlightTimer * CMmHighlightTimer::NewL(class CMmWidgetContainer *)
	?GetSuiteModelL@CMmWidgetContainer@@QAEPAVCHnSuiteModel@@XZ @ 14 NONAME ; class CHnSuiteModel * CMmWidgetContainer::GetSuiteModelL(void)
	?HandleForegroundGainedL@CMmWidgetContainer@@UAEXXZ @ 15 NONAME ; void CMmWidgetContainer::HandleForegroundGainedL(void)
	?CancelDragL@CMmWidgetContainer@@QAEXH@Z @ 16 NONAME ; void CMmWidgetContainer::CancelDragL(int)
	?SetManualHighlightL@CMmWidgetContainer@@UAEXHH@Z @ 17 NONAME ; void CMmWidgetContainer::SetManualHighlightL(int, int)
	?SetFlipOpenL@CMmWidgetContainer@@QAEXH@Z @ 18 NONAME ; void CMmWidgetContainer::SetFlipOpenL(int)
	?ItemIsFullyVisible@CMmWidgetContainer@@QAEHH@Z @ 19 NONAME ; int CMmWidgetContainer::ItemIsFullyVisible(int)
	?SetHasFocusL@CMmWidgetContainer@@QAEXH@Z @ 20 NONAME ; void CMmWidgetContainer::SetHasFocusL(int)
	?HandleTopFocusL@CMmWidgetContainer@@UAEXH@Z @ 21 NONAME ; void CMmWidgetContainer::HandleTopFocusL(int)
	?HandleOptionsMenuVisibilityChangeL@CMmWidgetContainer@@UAEXH@Z @ 22 NONAME ; void CMmWidgetContainer::HandleOptionsMenuVisibilityChangeL(int)
	?NewGridContainerL@CMmWidgetContainer@@SAPAV1@ABVTRect@@PAVMObjectProvider@@PAVCMmTemplateLibrary@@@Z @ 23 NONAME ; class CMmWidgetContainer * CMmWidgetContainer::NewGridContainerL(class TRect const &, class MObjectProvider *, class CMmTemplateLibrary *)
	?NumberOfItems@CMmWidgetContainer@@QAEHXZ @ 24 NONAME ; int CMmWidgetContainer::NumberOfItems(void)
	?WidgetType@CMmWidgetContainer@@UAE?AW4THnSuiteWidgetType@@XZ @ 25 NONAME ; enum THnSuiteWidgetType CMmWidgetContainer::WidgetType(void)
	?GetHighlight@CMmWidgetContainer@@UAEHXZ @ 26 NONAME ; int CMmWidgetContainer::GetHighlight(void)
	?ItemIconZoomL@CMmWidgetContainer@@QAEXH@Z @ 27 NONAME ; void CMmWidgetContainer::ItemIconZoomL(int)
	?ResetWidgetPosition@CMmWidgetContainer@@QAEXXZ @ 28 NONAME ; void CMmWidgetContainer::ResetWidgetPosition(void)
	?HandleBackgroundGainedL@CMmWidgetContainer@@UAEXXZ @ 29 NONAME ; void CMmWidgetContainer::HandleBackgroundGainedL(void)
	?CacheWidgetPosition@CMmWidgetContainer@@QAEXXZ @ 30 NONAME ; void CMmWidgetContainer::CacheWidgetPosition(void)
	?NewLC@CMmHighlightTimer@@SAPAV1@PAVCMmWidgetContainer@@@Z @ 31 NONAME ; class CMmHighlightTimer * CMmHighlightTimer::NewLC(class CMmWidgetContainer *)
	?SetEmptyTextL@CMmListBoxContainer@@UAEXABVTDesC16@@@Z @ 32 NONAME ; void CMmListBoxContainer::SetEmptyTextL(class TDesC16 const &)
	?SetObserver@CMmWidgetContainer@@UAEXPAVMMmWidgetObserver@@@Z @ 33 NONAME ; void CMmWidgetContainer::SetObserver(class MMmWidgetObserver *)
	?IsHighlightVisible@CMmWidgetContainer@@UAEHXZ @ 34 NONAME ; int CMmWidgetContainer::IsHighlightVisible(void)
	?GetItemRectL@CMmWidgetContainer@@QAE?AVTRect@@H@Z @ 35 NONAME ; class TRect CMmWidgetContainer::GetItemRectL(int)
	?SetZoom@CMmWidgetContainer@@QAEXW4TAknUiZoom@@@Z @ 36 NONAME ; void CMmWidgetContainer::SetZoom(enum TAknUiZoom)
	?SetIsFaded@CMmWidgetContainer@@QAEXH@Z @ 37 NONAME ; void CMmWidgetContainer::SetIsFaded(int)
	?NewListBoxContainerL@CMmWidgetContainer@@SAPAV1@ABVTRect@@PAVMObjectProvider@@PAVCMmTemplateLibrary@@@Z @ 38 NONAME ; class CMmWidgetContainer * CMmWidgetContainer::NewListBoxContainerL(class TRect const &, class MObjectProvider *, class CMmTemplateLibrary *)
	?StopMovingL@CMmWidgetContainer@@QAEXXZ @ 39 NONAME ; void CMmWidgetContainer::StopMovingL(void)
	?SetDefaultHighlightL@CMmListBoxContainer@@UAEXH@Z @ 40 NONAME ; void CMmListBoxContainer::SetDefaultHighlightL(int)
	?SetEmptyTextL@CMmGridContainer@@UAEXABVTDesC16@@@Z @ 41 NONAME ; void CMmGridContainer::SetEmptyTextL(class TDesC16 const &)
	?SetLongTapObserver@CMmWidgetContainer@@UAEXPAVMMmLongTapObserver@@@Z @ 42 NONAME ; void CMmWidgetContainer::SetLongTapObserver(class MMmLongTapObserver *)
	?ScrollToItemL@CMmWidgetContainer@@QAEHH@Z @ 43 NONAME ; int CMmWidgetContainer::ScrollToItemL(int)

