EXPORTS
	?trUtf8@HsSnapLine@@SA?AVQString@@PBD0@Z @ 1 NONAME ; class QString HsSnapLine::trUtf8(char const *, char const *)
	?createOpenAppLibraryEvent@HsMenuEventFactory@@SAPAVQEvent@@W4HsMenuMode@Hs@@VQVariant@@@Z @ 2 NONAME ; class QEvent * HsMenuEventFactory::createOpenAppLibraryEvent(enum Hs::HsMenuMode, class QVariant)
	?instance@HsWidgetPositioningOnWidgetAdd@@SAPAV1@XZ @ 3 NONAME ; class HsWidgetPositioningOnWidgetAdd * HsWidgetPositioningOnWidgetAdd::instance(void)
	?trUtf8@HsTitleResolver@@SA?AVQString@@PBD0@Z @ 4 NONAME ; class QString HsTitleResolver::trUtf8(char const *, char const *)
	?convert@HsAnchorPointInBottomRight@@UAE?AV?$QList@VQRectF@@@@ABVQRectF@@ABV2@1ABVQPointF@@@Z @ 5 NONAME ; class QList<class QRectF> HsAnchorPointInBottomRight::convert(class QRectF const &, class QList<class QRectF> const &, class QList<class QRectF> const &, class QPointF const &)
	?tr@HsTitleResolver@@SA?AVQString@@PBD0@Z @ 6 NONAME ; class QString HsTitleResolver::tr(char const *, char const *)
	?setEasingCurve@HsPropertyAnimationWrapper@@QAEXABVQEasingCurve@@@Z @ 7 NONAME ; void HsPropertyAnimationWrapper::setEasingCurve(class QEasingCurve const &)
	?convert@HsAdvancedWidgetPositioningOnOrientationChange@@UAE?AV?$QList@VQRectF@@@@ABVQRectF@@ABV2@0@Z @ 8 NONAME ; class QList<class QRectF> HsAdvancedWidgetPositioningOnOrientationChange::convert(class QRectF const &, class QList<class QRectF> const &, class QRectF const &)
	?show@HsMessageBoxWrapper@@QAEXXZ @ 9 NONAME ; void HsMessageBoxWrapper::show(void)
	?staticMetaObject@HsPageIndicator@@2UQMetaObject@@B @ 10 NONAME ; struct QMetaObject const HsPageIndicator::staticMetaObject
	?createAddAppsFromCollectionViewEvent@HsMenuEventFactory@@SAPAVQEvent@@HH@Z @ 11 NONAME ; class QEvent * HsMenuEventFactory::createAddAppsFromCollectionViewEvent(int, int)
	?tr@HsImageFetcherClient@@SA?AVQString@@PBD0@Z @ 12 NONAME ; class QString HsImageFetcherClient::tr(char const *, char const *)
	?metaObject@HsTrashBinWidget@@UBEPBUQMetaObject@@XZ @ 13 NONAME ; struct QMetaObject const * HsTrashBinWidget::metaObject(void) const
	??1HsSnapLine@@UAE@XZ @ 14 NONAME ; HsSnapLine::~HsSnapLine(void)
	?trUtf8@HsSnapLine@@SA?AVQString@@PBD0H@Z @ 15 NONAME ; class QString HsSnapLine::trUtf8(char const *, char const *, int)
	?qt_metacall@HsTitleResolver@@UAEHW4Call@QMetaObject@@HPAPAX@Z @ 16 NONAME ; int HsTitleResolver::qt_metacall(enum QMetaObject::Call, int, void * *)
	?metaObject@HsImageFetcherClient@@UBEPBUQMetaObject@@XZ @ 17 NONAME ; struct QMetaObject const * HsImageFetcherClient::metaObject(void) const
	?setInstance@HsWidgetPositioningOnWidgetMove@@SAXPAV1@@Z @ 18 NONAME ; void HsWidgetPositioningOnWidgetMove::setInstance(class HsWidgetPositioningOnWidgetMove *)
	?extendVerticalLineToIncludeInactiveRect@HsSnapToLines@@AAEXXZ @ 19 NONAME ; void HsSnapToLines::extendVerticalLineToIncludeInactiveRect(void)
	?getFadeOutDuration@HsSnapLine@@AAEHXZ @ 20 NONAME ; int HsSnapLine::getFadeOutDuration(void)
	?eventType@HsMenuEvent@@SA?AW4Type@QEvent@@XZ @ 21 NONAME ; enum QEvent::Type HsMenuEvent::eventType(void)
	?tr@HsImageFetcherClient@@SA?AVQString@@PBD0H@Z @ 22 NONAME ; class QString HsImageFetcherClient::tr(char const *, char const *, int)
	?qt_metacast@HsPageIndicator@@UAEPAXPBD@Z @ 23 NONAME ; void * HsPageIndicator::qt_metacast(char const *)
	??0HsMessageBoxWrapper@@QAE@PAVQObject@@@Z @ 24 NONAME ; HsMessageBoxWrapper::HsMessageBoxWrapper(class QObject *)
	??0HsMenuEvent@@QAE@W4OperationType@0@ABV?$QMap@VQString@@VQVariant@@@@@Z @ 25 NONAME ; HsMenuEvent::HsMenuEvent(enum HsMenuEvent::OperationType, class QMap<class QString, class QVariant> const &)
	?actionOnFadeOutAnimationStop@HsSnapLine@@AAEXXZ @ 26 NONAME ; void HsSnapLine::actionOnFadeOutAnimationStop(void)
	?qt_metacall@HsMessageBoxWrapper@@UAEHW4Call@QMetaObject@@HPAPAX@Z @ 27 NONAME ; int HsMessageBoxWrapper::qt_metacall(enum QMetaObject::Call, int, void * *)
	?staticMetaObject@HsImageFetcherClient@@2UQMetaObject@@B @ 28 NONAME ; struct QMetaObject const HsImageFetcherClient::staticMetaObject
	?trUtf8@HsMessageBoxWrapper@@SA?AVQString@@PBD0@Z @ 29 NONAME ; class QString HsMessageBoxWrapper::trUtf8(char const *, char const *)
	?close@HsMessageBoxWrapper@@QAEXXZ @ 30 NONAME ; void HsMessageBoxWrapper::close(void)
	?qt_metacast@HsSnapLine@@UAEPAXPBD@Z @ 31 NONAME ; void * HsSnapLine::qt_metacast(char const *)
	?extendHorizontalLineToIncludeInactiveRect@HsSnapToLines@@AAEXXZ @ 32 NONAME ; void HsSnapToLines::extendHorizontalLineToIncludeInactiveRect(void)
	?fetchFailed@HsImageFetcherClient@@IAEXHABVQString@@@Z @ 33 NONAME ; void HsImageFetcherClient::fetchFailed(int, class QString const &)
	??1HsTitleResolver@@UAE@XZ @ 34 NONAME ; HsTitleResolver::~HsTitleResolver(void)
	?trUtf8@HsSpinnerDialog@@SA?AVQString@@PBD0@Z @ 35 NONAME ; class QString HsSpinnerDialog::trUtf8(char const *, char const *)
	?checkInactiveRectBetterFitForHorizontalSnapping@HsSnapToLines@@AAEXMM@Z @ 36 NONAME ; void HsSnapToLines::checkInactiveRectBetterFitForHorizontalSnapping(float, float)
	?tr@HsPropertyAnimationWrapper@@SA?AVQString@@PBD0H@Z @ 37 NONAME ; class QString HsPropertyAnimationWrapper::tr(char const *, char const *, int)
	?setQueryText@HsMessageBoxWrapper@@QAEXABVQString@@@Z @ 38 NONAME ; void HsMessageBoxWrapper::setQueryText(class QString const &)
	??1HsMenuEventTransition@@UAE@XZ @ 39 NONAME ; HsMenuEventTransition::~HsMenuEventTransition(void)
	?tr@HsSpinnerDialog@@SA?AVQString@@PBD0@Z @ 40 NONAME ; class QString HsSpinnerDialog::tr(char const *, char const *)
	?fadeInAnimationFinished@HsSnapLine@@AAEXXZ @ 41 NONAME ; void HsSnapLine::fadeInAnimationFinished(void)
	?checkInactiveRectLieAboveOrBelowOfMovingRect@HsSnapToLines@@AAEXXZ @ 42 NONAME ; void HsSnapToLines::checkInactiveRectLieAboveOrBelowOfMovingRect(void)
	?setHeader@HsMessageBoxWrapper@@QAEXABVQString@@@Z @ 43 NONAME ; void HsMessageBoxWrapper::setHeader(class QString const &)
	?setSpacing@HsPageIndicator@@QAEXM@Z @ 44 NONAME ; void HsPageIndicator::setSpacing(float)
	??_EHsImageFetcherClient@@UAE@I@Z @ 45 NONAME ; HsImageFetcherClient::~HsImageFetcherClient(unsigned int)
	?qt_metacast@HsPropertyAnimationWrapper@@UAEPAXPBD@Z @ 46 NONAME ; void * HsPropertyAnimationWrapper::qt_metacast(char const *)
	?createPreviewHSWidgetEvent@HsMenuEventFactory@@SAPAVQEvent@@HABVQString@@00@Z @ 47 NONAME ; class QEvent * HsMenuEventFactory::createPreviewHSWidgetEvent(int, class QString const &, class QString const &, class QString const &)
	??1HsMenuEvent@@UAE@XZ @ 48 NONAME ; HsMenuEvent::~HsMenuEvent(void)
	?tr@HsMessageBoxWrapper@@SA?AVQString@@PBD0@Z @ 49 NONAME ; class QString HsMessageBoxWrapper::tr(char const *, char const *)
	?createCollectionDeletedEvent@HsMenuEventFactory@@SAPAVQEvent@@XZ @ 50 NONAME ; class QEvent * HsMenuEventFactory::createCollectionDeletedEvent(void)
	?tr@HsImageGridWidget@@SA?AVQString@@PBD0@Z @ 51 NONAME ; class QString HsImageGridWidget::tr(char const *, char const *)
	?createUninstallApplicationEvent@HsMenuEventFactory@@SAPAVQEvent@@H@Z @ 52 NONAME ; class QEvent * HsMenuEventFactory::createUninstallApplicationEvent(int)
	?data@HsMenuEvent@@QBE?AV?$QMap@VQString@@VQVariant@@@@XZ @ 53 NONAME ; class QMap<class QString, class QVariant> HsMenuEvent::data(void) const
	??1HsMenuDialogFactory@@UAE@XZ @ 54 NONAME ; HsMenuDialogFactory::~HsMenuDialogFactory(void)
	?operation@HsMenuEvent@@QBE?AW4OperationType@1@XZ @ 55 NONAME ; enum HsMenuEvent::OperationType HsMenuEvent::operation(void) const
	?setBackward@HsPropertyAnimationWrapper@@QAEXXZ @ 56 NONAME ; void HsPropertyAnimationWrapper::setBackward(void)
	?qt_metacast@HsSpinnerDialog@@UAEPAXPBD@Z @ 57 NONAME ; void * HsSpinnerDialog::qt_metacast(char const *)
	?getStaticMetaObject@HsPageIndicator@@SAABUQMetaObject@@XZ @ 58 NONAME ; struct QMetaObject const & HsPageIndicator::getStaticMetaObject(void)
	?compareBottomOfMovingRectForSnapping@HsSnapToLines@@AAEXXZ @ 59 NONAME ; void HsSnapToLines::compareBottomOfMovingRectForSnapping(void)
	?createUnknownEvent@HsMenuEventFactory@@SAPAVQEvent@@XZ @ 60 NONAME ; class QEvent * HsMenuEventFactory::createUnknownEvent(void)
	??1HsPropertyAnimationWrapper@@UAE@XZ @ 61 NONAME ; HsPropertyAnimationWrapper::~HsPropertyAnimationWrapper(void)
	?onNetworkNameChanged@HsTitleResolver@@AAEXABVQString@@@Z @ 62 NONAME ; void HsTitleResolver::onNetworkNameChanged(class QString const &)
	?metaObject@HsMessageBoxWrapper@@UBEPBUQMetaObject@@XZ @ 63 NONAME ; struct QMetaObject const * HsMessageBoxWrapper::metaObject(void) const
	?createAppDetailsViewEvent@HsMenuEventFactory@@SAPAVQEvent@@H@Z @ 64 NONAME ; class QEvent * HsMenuEventFactory::createAppDetailsViewEvent(int)
	?setEndValue@HsPropertyAnimationWrapper@@QAEXABVQVariant@@@Z @ 65 NONAME ; void HsPropertyAnimationWrapper::setEndValue(class QVariant const &)
	??_EHsSnapLine@@UAE@I@Z @ 66 NONAME ; HsSnapLine::~HsSnapLine(unsigned int)
	?setContent@HsImageGridWidget@@QAEXABVQStringList@@@Z @ 67 NONAME ; void HsImageGridWidget::setContent(class QStringList const &)
	?staticMetaObject@XQAIWGetImageClient@@2UQMetaObject@@B @ 68 NONAME ; struct QMetaObject const XQAIWGetImageClient::staticMetaObject
	?qt_metacall@HsPropertyAnimationWrapper@@UAEHW4Call@QMetaObject@@HPAPAX@Z @ 69 NONAME ; int HsPropertyAnimationWrapper::qt_metacall(enum QMetaObject::Call, int, void * *)
	?qt_metacast@HsMessageBoxWrapper@@UAEPAXPBD@Z @ 70 NONAME ; void * HsMessageBoxWrapper::qt_metacast(char const *)
	?createArrangeAllCollectionsEvent@HsMenuEventFactory@@SAPAVQEvent@@H@Z @ 71 NONAME ; class QEvent * HsMenuEventFactory::createArrangeAllCollectionsEvent(int)
	?fetch@XQAIWGetImageClient@@QAEXXZ @ 72 NONAME ; void XQAIWGetImageClient::fetch(void)
	?metaObject@HsPropertyAnimationWrapper@@UBEPBUQMetaObject@@XZ @ 73 NONAME ; struct QMetaObject const * HsPropertyAnimationWrapper::metaObject(void) const
	?isAnimationRunning@HsPageIndicator@@QBE_NXZ @ 74 NONAME ; bool HsPageIndicator::isAnimationRunning(void) const
	?getIndexForCoordinate@HsWidgetOrganizer@@AAEHVQPointF@@@Z @ 75 NONAME ; int HsWidgetOrganizer::getIndexForCoordinate(class QPointF)
	?createAppSettingsViewEvent@HsMenuEventFactory@@SAPAVQEvent@@H@Z @ 76 NONAME ; class QEvent * HsMenuEventFactory::createAppSettingsViewEvent(int)
	?trUtf8@HsImageGridWidget@@SA?AVQString@@PBD0@Z @ 77 NONAME ; class QString HsImageGridWidget::trUtf8(char const *, char const *)
	??1HsAnchorPointInCenter@@UAE@XZ @ 78 NONAME ; HsAnchorPointInCenter::~HsAnchorPointInCenter(void)
	?createDeleteCollectionEvent@HsMenuEventFactory@@SAPAVQEvent@@H@Z @ 79 NONAME ; class QEvent * HsMenuEventFactory::createDeleteCollectionEvent(int)
	?trUtf8@HsSpinnerDialog@@SA?AVQString@@PBD0H@Z @ 80 NONAME ; class QString HsSpinnerDialog::trUtf8(char const *, char const *, int)
	?metaObject@XQAIWGetImageClient@@UBEPBUQMetaObject@@XZ @ 81 NONAME ; struct QMetaObject const * XQAIWGetImageClient::metaObject(void) const
	?fadeOutAnimationFinished@HsSnapLine@@AAEXXZ @ 82 NONAME ; void HsSnapLine::fadeOutAnimationFinished(void)
	?getStaticMetaObject@HsPropertyAnimationWrapper@@SAABUQMetaObject@@XZ @ 83 NONAME ; struct QMetaObject const & HsPropertyAnimationWrapper::getStaticMetaObject(void)
	?trUtf8@HsTitleResolver@@SA?AVQString@@PBD0H@Z @ 84 NONAME ; class QString HsTitleResolver::trUtf8(char const *, char const *, int)
	??0HsSnapToLines@@QAE@XZ @ 85 NONAME ; HsSnapToLines::HsSnapToLines(void)
	?trUtf8@HsTrashBinWidget@@SA?AVQString@@PBD0@Z @ 86 NONAME ; class QString HsTrashBinWidget::trUtf8(char const *, char const *)
	?activate@HsTrashBinWidget@@QAEXXZ @ 87 NONAME ; void HsTrashBinWidget::activate(void)
	??1HsSpinnerDialog@@UAE@XZ @ 88 NONAME ; HsSpinnerDialog::~HsSpinnerDialog(void)
	?checkInactiveRectPositionToHorizontalLine@HsSnapToLines@@AAEXXZ @ 89 NONAME ; void HsSnapToLines::checkInactiveRectPositionToHorizontalLine(void)
	?qt_metacall@HsPageIndicator@@UAEHW4Call@QMetaObject@@HPAPAX@Z @ 90 NONAME ; int HsPageIndicator::qt_metacall(enum QMetaObject::Call, int, void * *)
	?setInstance@HsWidgetPositioningOnOrientationChange@@SAXPAV1@@Z @ 91 NONAME ; void HsWidgetPositioningOnOrientationChange::setInstance(class HsWidgetPositioningOnOrientationChange *)
	?run@HsSnapToLines@@UAE?AVResult@HsWidgetPositioningOnWidgetMove@@ABVQRectF@@@Z @ 92 NONAME ; class HsWidgetPositioningOnWidgetMove::Result HsSnapToLines::run(class QRectF const &)
	?staticMetaObject@HsPropertyAnimationWrapper@@2UQMetaObject@@B @ 93 NONAME ; struct QMetaObject const HsPropertyAnimationWrapper::staticMetaObject
	?createOpenCollectionFromAppLibraryEvent@HsMenuEventFactory@@SAPAVQEvent@@HABVQString@@@Z @ 94 NONAME ; class QEvent * HsMenuEventFactory::createOpenCollectionFromAppLibraryEvent(int, class QString const &)
	?staticMetaObject@HsSnapLine@@2UQMetaObject@@B @ 95 NONAME ; struct QMetaObject const HsSnapLine::staticMetaObject
	?start@HsPropertyAnimationWrapper@@QAEXXZ @ 96 NONAME ; void HsPropertyAnimationWrapper::start(void)
	??_EHsTrashBinWidget@@UAE@I@Z @ 97 NONAME ; HsTrashBinWidget::~HsTrashBinWidget(unsigned int)
	?startFadeInAnimation@HsSnapLine@@AAEXXZ @ 98 NONAME ; void HsSnapLine::startFadeInAnimation(void)
	?metaObject@HsSnapLine@@UBEPBUQMetaObject@@XZ @ 99 NONAME ; struct QMetaObject const * HsSnapLine::metaObject(void) const
	??1XQAIWGetImageClient@@UAE@XZ @ 100 NONAME ; XQAIWGetImageClient::~XQAIWGetImageClient(void)
	??_EHsPropertyAnimationWrapper@@UAE@I@Z @ 101 NONAME ; HsPropertyAnimationWrapper::~HsPropertyAnimationWrapper(unsigned int)
	?activeItemIndex@HsPageIndicator@@QBEHXZ @ 102 NONAME ; int HsPageIndicator::activeItemIndex(void) const
	?isFadeInAnimationRunning@HsSnapLine@@ABE_NXZ @ 103 NONAME ; bool HsSnapLine::isFadeInAnimationRunning(void) const
	?qt_metacall@HsSnapLine@@UAEHW4Call@QMetaObject@@HPAPAX@Z @ 104 NONAME ; int HsSnapLine::qt_metacall(enum QMetaObject::Call, int, void * *)
	?layoutItems@HsPageIndicator@@AAEXXZ @ 105 NONAME ; void HsPageIndicator::layoutItems(void)
	?trUtf8@HsMessageBoxWrapper@@SA?AVQString@@PBD0H@Z @ 106 NONAME ; class QString HsMessageBoxWrapper::trUtf8(char const *, char const *, int)
	?metaObject@HsSpinnerDialog@@UBEPBUQMetaObject@@XZ @ 107 NONAME ; struct QMetaObject const * HsSpinnerDialog::metaObject(void) const
	?getStaticMetaObject@HsImageGridWidget@@SAABUQMetaObject@@XZ @ 108 NONAME ; struct QMetaObject const & HsImageGridWidget::getStaticMetaObject(void)
	?setConfiguration@HsSnapToLines@@UAEXABV?$QHash@VQString@@VQVariant@@@@@Z @ 109 NONAME ; void HsSnapToLines::setConfiguration(class QHash<class QString, class QVariant> const &)
	?trUtf8@HsPageIndicator@@SA?AVQString@@PBD0@Z @ 110 NONAME ; class QString HsPageIndicator::trUtf8(char const *, char const *)
	?metaObject@HsTitleResolver@@UBEPBUQMetaObject@@XZ @ 111 NONAME ; struct QMetaObject const * HsTitleResolver::metaObject(void) const
	?titleChanged@HsTitleResolver@@IAEXABVQString@@@Z @ 112 NONAME ; void HsTitleResolver::titleChanged(class QString const &)
	?tr@HsPageIndicator@@SA?AVQString@@PBD0@Z @ 113 NONAME ; class QString HsPageIndicator::tr(char const *, char const *)
	?convert@HsWidgetOrganizer@@UAE?AV?$QList@VQRectF@@@@ABVQRectF@@ABV2@1ABVQPointF@@@Z @ 114 NONAME ; class QList<class QRectF> HsWidgetOrganizer::convert(class QRectF const &, class QList<class QRectF> const &, class QList<class QRectF> const &, class QPointF const &)
	?tr@HsPropertyAnimationWrapper@@SA?AVQString@@PBD0@Z @ 115 NONAME ; class QString HsPropertyAnimationWrapper::tr(char const *, char const *)
	?onStatusChanged@HsTitleResolver@@AAEXW4HsDeviceInfoStatus@HsDeviceInfoListener@@@Z @ 116 NONAME ; void HsTitleResolver::onStatusChanged(enum HsDeviceInfoListener::HsDeviceInfoStatus)
	?createVerticalLine@HsSnapToLines@@AAEXXZ @ 117 NONAME ; void HsSnapToLines::createVerticalLine(void)
	?trUtf8@XQAIWGetImageClient@@SA?AVQString@@PBD0H@Z @ 118 NONAME ; class QString XQAIWGetImageClient::trUtf8(char const *, char const *, int)
	?actionOnFadeInAnimationStop@HsSnapLine@@AAEXXZ @ 119 NONAME ; void HsSnapLine::actionOnFadeInAnimationStop(void)
	?qt_metacast@HsTrashBinWidget@@UAEPAXPBD@Z @ 120 NONAME ; void * HsTrashBinWidget::qt_metacast(char const *)
	?createNewCollectionEvent@HsMenuEventFactory@@SAPAVQEvent@@XZ @ 121 NONAME ; class QEvent * HsMenuEventFactory::createNewCollectionEvent(void)
	?createOpenHomeScreenEvent@HsMenuEventFactory@@SAPAVQEvent@@XZ @ 122 NONAME ; class QEvent * HsMenuEventFactory::createOpenHomeScreenEvent(void)
	?checkInactiveRectPositionToVerticalLine@HsSnapToLines@@AAEXXZ @ 123 NONAME ; void HsSnapToLines::checkInactiveRectPositionToVerticalLine(void)
	?findImages@XQAIWGetImageClient@@AAEXABVQString@@ABVQStringList@@AAV3@@Z @ 124 NONAME ; void XQAIWGetImageClient::findImages(class QString const &, class QStringList const &, class QStringList &)
	??_EHsMenuDialogFactory@@UAE@I@Z @ 125 NONAME ; HsMenuDialogFactory::~HsMenuDialogFactory(unsigned int)
	??1HsWidgetPositioningOnWidgetAdd@@UAE@XZ @ 126 NONAME ; HsWidgetPositioningOnWidgetAdd::~HsWidgetPositioningOnWidgetAdd(void)
	?createInstallationLogEvent@HsMenuEventFactory@@SAPAVQEvent@@XZ @ 127 NONAME ; class QEvent * HsMenuEventFactory::createInstallationLogEvent(void)
	?extendVerticalLine@HsSnapToLines@@AAEXXZ @ 128 NONAME ; void HsSnapToLines::extendVerticalLine(void)
	?stop@HsSpinnerDialog@@QAEXXZ @ 129 NONAME ; void HsSpinnerDialog::stop(void)
	?stop@HsPropertyAnimationWrapper@@QAEXXZ @ 130 NONAME ; void HsPropertyAnimationWrapper::stop(void)
	?tr@HsSpinnerDialog@@SA?AVQString@@PBD0H@Z @ 131 NONAME ; class QString HsSpinnerDialog::tr(char const *, char const *, int)
	?getStaticMetaObject@HsSnapLine@@SAABUQMetaObject@@XZ @ 132 NONAME ; struct QMetaObject const & HsSnapLine::getStaticMetaObject(void)
	?handleError@HsImageFetcherClient@@AAEXHABVQString@@@Z @ 133 NONAME ; void HsImageFetcherClient::handleError(int, class QString const &)
	?searchHeightSpace@HsWidgetOrganizer@@AAE_NH@Z @ 134 NONAME ; bool HsWidgetOrganizer::searchHeightSpace(int)
	?tr@HsTitleResolver@@SA?AVQString@@PBD0H@Z @ 135 NONAME ; class QString HsTitleResolver::tr(char const *, char const *, int)
	?setPropertyName@HsPropertyAnimationWrapper@@QAEXABVQByteArray@@@Z @ 136 NONAME ; void HsPropertyAnimationWrapper::setPropertyName(class QByteArray const &)
	?checkInactiveRectBetterFitForVerticalSnapping@HsSnapToLines@@AAEXMM@Z @ 137 NONAME ; void HsSnapToLines::checkInactiveRectBetterFitForVerticalSnapping(float, float)
	?onDialogClosed@HsMessageBoxWrapper@@AAEXH@Z @ 138 NONAME ; void HsMessageBoxWrapper::onDialogClosed(int)
	?createRenameCollectionEvent@HsMenuEventFactory@@SAPAVQEvent@@H@Z @ 139 NONAME ; class QEvent * HsMenuEventFactory::createRenameCollectionEvent(int)
	?tr@HsTrashBinWidget@@SA?AVQString@@PBD0@Z @ 140 NONAME ; class QString HsTrashBinWidget::tr(char const *, char const *)
	?getStaticMetaObject@XQAIWGetImageClient@@SAABUQMetaObject@@XZ @ 141 NONAME ; struct QMetaObject const & XQAIWGetImageClient::getStaticMetaObject(void)
	?getStaticMetaObject@HsTrashBinWidget@@SAABUQMetaObject@@XZ @ 142 NONAME ; struct QMetaObject const & HsTrashBinWidget::getStaticMetaObject(void)
	?removeItem@HsPageIndicator@@QAEXH@Z @ 143 NONAME ; void HsPageIndicator::removeItem(int)
	?mInstance@HsWidgetPositioningOnOrientationChange@@0PAV1@A @ 144 NONAME ; class HsWidgetPositioningOnOrientationChange * HsWidgetPositioningOnOrientationChange::mInstance
	?staticMetaObject@HsSpinnerDialog@@2UQMetaObject@@B @ 145 NONAME ; struct QMetaObject const HsSpinnerDialog::staticMetaObject
	?setDuration@HsPropertyAnimationWrapper@@QAEXH@Z @ 146 NONAME ; void HsPropertyAnimationWrapper::setDuration(int)
	??_EXQAIWGetImageClient@@UAE@I@Z @ 147 NONAME ; XQAIWGetImageClient::~XQAIWGetImageClient(unsigned int)
	??0HsImageFetcherClient@@QAE@PAVQObject@@@Z @ 148 NONAME ; HsImageFetcherClient::HsImageFetcherClient(class QObject *)
	??_EHsMessageBoxWrapper@@UAE@I@Z @ 149 NONAME ; HsMessageBoxWrapper::~HsMessageBoxWrapper(unsigned int)
	?tr@HsTrashBinWidget@@SA?AVQString@@PBD0H@Z @ 150 NONAME ; class QString HsTrashBinWidget::tr(char const *, char const *, int)
	?setTargetObject@HsPropertyAnimationWrapper@@QAEXPAVQObject@@@Z @ 151 NONAME ; void HsPropertyAnimationWrapper::setTargetObject(class QObject *)
	??0HsTrashBinWidget@@QAE@PAVQGraphicsItem@@@Z @ 152 NONAME ; HsTrashBinWidget::HsTrashBinWidget(class QGraphicsItem *)
	?compareLeftSideOfMovingRectForSnapping@HsSnapToLines@@AAEXXZ @ 153 NONAME ; void HsSnapToLines::compareLeftSideOfMovingRectForSnapping(void)
	?fetch@HsImageFetcherClient@@QAEXXZ @ 154 NONAME ; void HsImageFetcherClient::fetch(void)
	?instance@HsWidgetPositioningOnWidgetMove@@SAPAV1@XZ @ 155 NONAME ; class HsWidgetPositioningOnWidgetMove * HsWidgetPositioningOnWidgetMove::instance(void)
	?staticMetaObject@HsMessageBoxWrapper@@2UQMetaObject@@B @ 156 NONAME ; struct QMetaObject const HsMessageBoxWrapper::staticMetaObject
	?qt_metacast@HsImageFetcherClient@@UAEPAXPBD@Z @ 157 NONAME ; void * HsImageFetcherClient::qt_metacast(char const *)
	?trUtf8@HsImageFetcherClient@@SA?AVQString@@PBD0@Z @ 158 NONAME ; class QString HsImageFetcherClient::trUtf8(char const *, char const *)
	?fetchCompleted@HsImageFetcherClient@@IAEXABVQString@@@Z @ 159 NONAME ; void HsImageFetcherClient::fetchCompleted(class QString const &)
	?start@HsSpinnerDialog@@QAEXXZ @ 160 NONAME ; void HsSpinnerDialog::start(void)
	?isFadeOutAnimationRunning@HsSnapLine@@ABE_NXZ @ 161 NONAME ; bool HsSnapLine::isFadeOutAnimationRunning(void) const
	?trUtf8@HsPropertyAnimationWrapper@@SA?AVQString@@PBD0@Z @ 162 NONAME ; class QString HsPropertyAnimationWrapper::trUtf8(char const *, char const *)
	?createSnappableRectangles@HsSnapToLines@@AAEXABV?$QList@VQRectF@@@@@Z @ 163 NONAME ; void HsSnapToLines::createSnappableRectangles(class QList<class QRectF> const &)
	?staticMetaObject@HsImageGridWidget@@2UQMetaObject@@B @ 164 NONAME ; struct QMetaObject const HsImageGridWidget::staticMetaObject
	??_EHsTitleResolver@@UAE@I@Z @ 165 NONAME ; HsTitleResolver::~HsTitleResolver(unsigned int)
	?setForward@HsPropertyAnimationWrapper@@QAEXXZ @ 166 NONAME ; void HsPropertyAnimationWrapper::setForward(void)
	?convert@HsAnchorPointInCenter@@UAE?AV?$QList@VQRectF@@@@ABVQRectF@@ABV2@1ABVQPointF@@@Z @ 167 NONAME ; class QList<class QRectF> HsAnchorPointInCenter::convert(class QRectF const &, class QList<class QRectF> const &, class QList<class QRectF> const &, class QPointF const &)
	??1HsSnapToLines@@UAE@XZ @ 168 NONAME ; HsSnapToLines::~HsSnapToLines(void)
	?staticMetaObject@HsTrashBinWidget@@2UQMetaObject@@B @ 169 NONAME ; struct QMetaObject const HsTrashBinWidget::staticMetaObject
	?title@HsTitleResolver@@QAE?AVQString@@XZ @ 170 NONAME ; class QString HsTitleResolver::title(void)
	??_EHsWidgetPositioningOnWidgetAdd@@UAE@I@Z @ 171 NONAME ; HsWidgetPositioningOnWidgetAdd::~HsWidgetPositioningOnWidgetAdd(unsigned int)
	??_EHsMenuEventTransition@@UAE@I@Z @ 172 NONAME ; HsMenuEventTransition::~HsMenuEventTransition(unsigned int)
	?tr@HsSnapLine@@SA?AVQString@@PBD0@Z @ 173 NONAME ; class QString HsSnapLine::tr(char const *, char const *)
	?setPagePresentation@HsSnapToLines@@UAEXABVQRectF@@ABV?$QList@VQRectF@@@@0@Z @ 174 NONAME ; void HsSnapToLines::setPagePresentation(class QRectF const &, class QList<class QRectF> const &, class QRectF const &)
	?trUtf8@HsTrashBinWidget@@SA?AVQString@@PBD0H@Z @ 175 NONAME ; class QString HsTrashBinWidget::trUtf8(char const *, char const *, int)
	?trUtf8@HsImageFetcherClient@@SA?AVQString@@PBD0H@Z @ 176 NONAME ; class QString HsImageFetcherClient::trUtf8(char const *, char const *, int)
	??_EHsMenuEvent@@UAE@I@Z @ 177 NONAME ; HsMenuEvent::~HsMenuEvent(unsigned int)
	??1HsTrashBinWidget@@UAE@XZ @ 178 NONAME ; HsTrashBinWidget::~HsTrashBinWidget(void)
	?compareTopOfMovingRectForSnapping@HsSnapToLines@@AAEXXZ @ 179 NONAME ; void HsSnapToLines::compareTopOfMovingRectForSnapping(void)
	??_EHsSnapToLines@@UAE@I@Z @ 180 NONAME ; HsSnapToLines::~HsSnapToLines(unsigned int)
	?itemCount@HsPageIndicator@@QBEHXZ @ 181 NONAME ; int HsPageIndicator::itemCount(void) const
	?checkInactiveRectLieLeftOrRightOfMovingRect@HsSnapToLines@@AAEXXZ @ 182 NONAME ; void HsSnapToLines::checkInactiveRectLieLeftOrRightOfMovingRect(void)
	??1HsImageFetcherClient@@UAE@XZ @ 183 NONAME ; HsImageFetcherClient::~HsImageFetcherClient(void)
	?createAddAppsFromApplicationsViewEvent@HsMenuEventFactory@@SAPAVQEvent@@W4HsSortAttribute@Hs@@H@Z @ 184 NONAME ; class QEvent * HsMenuEventFactory::createAddAppsFromApplicationsViewEvent(enum Hs::HsSortAttribute, int)
	??1HsWidgetPositioningOnOrientationChange@@UAE@XZ @ 185 NONAME ; HsWidgetPositioningOnOrientationChange::~HsWidgetPositioningOnOrientationChange(void)
	?metaObject@HsImageGridWidget@@UBEPBUQMetaObject@@XZ @ 186 NONAME ; struct QMetaObject const * HsImageGridWidget::metaObject(void) const
	?checkInactiveRectVerticalEdgesInRange@HsSnapToLines@@AAEXM@Z @ 187 NONAME ; void HsSnapToLines::checkInactiveRectVerticalEdgesInRange(float)
	?imageSelectionCancelled@XQAIWGetImageClient@@AAEXXZ @ 188 NONAME ; void XQAIWGetImageClient::imageSelectionCancelled(void)
	?gridItemActivated@HsImageGridWidget@@AAEXABVQModelIndex@@@Z @ 189 NONAME ; void HsImageGridWidget::gridItemActivated(class QModelIndex const &)
	?markReservedAnchors@HsWidgetOrganizer@@AAE_NXZ @ 190 NONAME ; bool HsWidgetOrganizer::markReservedAnchors(void)
	?createRemoveAppFromCollectionEvent@HsMenuEventFactory@@SAPAVQEvent@@HH@Z @ 191 NONAME ; class QEvent * HsMenuEventFactory::createRemoveAppFromCollectionEvent(int, int)
	??1HsWidgetPositioningOnWidgetMove@@UAE@XZ @ 192 NONAME ; HsWidgetPositioningOnWidgetMove::~HsWidgetPositioningOnWidgetMove(void)
	?trUtf8@HsPageIndicator@@SA?AVQString@@PBD0H@Z @ 193 NONAME ; class QString HsPageIndicator::trUtf8(char const *, char const *, int)
	??0HsSpinnerDialog@@QAE@PAVQGraphicsItem@@@Z @ 194 NONAME ; HsSpinnerDialog::HsSpinnerDialog(class QGraphicsItem *)
	?createOpenCollectionEvent@HsMenuEventFactory@@SAPAVQEvent@@HABVQString@@@Z @ 195 NONAME ; class QEvent * HsMenuEventFactory::createOpenCollectionEvent(int, class QString const &)
	?initialize@HsPageIndicator@@QAEXHH@Z @ 196 NONAME ; void HsPageIndicator::initialize(int, int)
	??1HsPageIndicator@@UAE@XZ @ 197 NONAME ; HsPageIndicator::~HsPageIndicator(void)
	?instance@HsWidgetPositioningOnOrientationChange@@SAPAV1@XZ @ 198 NONAME ; class HsWidgetPositioningOnOrientationChange * HsWidgetPositioningOnOrientationChange::instance(void)
	?createAddToHomeScreenEvent@HsMenuEventFactory@@SAPAVQEvent@@HW4HsMenuMode@Hs@@VQVariant@@@Z @ 199 NONAME ; class QEvent * HsMenuEventFactory::createAddToHomeScreenEvent(int, enum Hs::HsMenuMode, class QVariant)
	?getFadeInDuration@HsSnapLine@@AAEHXZ @ 200 NONAME ; int HsSnapLine::getFadeInDuration(void)
	?getAnchorPoint@HsWidgetOrganizer@@AAE_NABVQSizeF@@@Z @ 201 NONAME ; bool HsWidgetOrganizer::getAnchorPoint(class QSizeF const &)
	?fetchCompleted@XQAIWGetImageClient@@IAEXABVQString@@@Z @ 202 NONAME ; void XQAIWGetImageClient::fetchCompleted(class QString const &)
	?requestCompleted@XQAIWGetImageClient@@AAEXABVQVariant@@@Z @ 203 NONAME ; void XQAIWGetImageClient::requestCompleted(class QVariant const &)
	?initAnchors@HsWidgetOrganizer@@AAE_NABVQSizeF@@@Z @ 204 NONAME ; bool HsWidgetOrganizer::initAnchors(class QSizeF const &)
	?accepted@HsMessageBoxWrapper@@IAEXXZ @ 205 NONAME ; void HsMessageBoxWrapper::accepted(void)
	?getStaticMetaObject@HsMessageBoxWrapper@@SAABUQMetaObject@@XZ @ 206 NONAME ; struct QMetaObject const & HsMessageBoxWrapper::getStaticMetaObject(void)
	?qt_metacast@XQAIWGetImageClient@@UAEPAXPBD@Z @ 207 NONAME ; void * XQAIWGetImageClient::qt_metacast(char const *)
	??_EHsImageGridWidget@@UAE@I@Z @ 208 NONAME ; HsImageGridWidget::~HsImageGridWidget(unsigned int)
	?hideLine@HsSnapLine@@QAEXXZ @ 209 NONAME ; void HsSnapLine::hideLine(void)
	?metaObject@HsPageIndicator@@UBEPBUQMetaObject@@XZ @ 210 NONAME ; struct QMetaObject const * HsPageIndicator::metaObject(void) const
	?imageSelected@XQAIWGetImageClient@@AAEXABVQString@@@Z @ 211 NONAME ; void XQAIWGetImageClient::imageSelected(class QString const &)
	?setActiveItemIndex@HsPageIndicator@@QAEXH@Z @ 212 NONAME ; void HsPageIndicator::setActiveItemIndex(int)
	?trUtf8@HsImageGridWidget@@SA?AVQString@@PBD0H@Z @ 213 NONAME ; class QString HsImageGridWidget::trUtf8(char const *, char const *, int)
	?getStaticMetaObject@HsImageFetcherClient@@SAABUQMetaObject@@XZ @ 214 NONAME ; struct QMetaObject const & HsImageFetcherClient::getStaticMetaObject(void)
	?createOpenInstalledViewEvent@HsMenuEventFactory@@SAPAVQEvent@@XZ @ 215 NONAME ; class QEvent * HsMenuEventFactory::createOpenInstalledViewEvent(void)
	??0HsSnapLine@@QAE@PAVQGraphicsItem@@@Z @ 216 NONAME ; HsSnapLine::HsSnapLine(class QGraphicsItem *)
	?startFadeOutAnimation@HsSnapLine@@AAEXXZ @ 217 NONAME ; void HsSnapLine::startFadeOutAnimation(void)
	?imageSelected@HsImageGridWidget@@IAEXABVQString@@@Z @ 218 NONAME ; void HsImageGridWidget::imageSelected(class QString const &)
	?getStaticMetaObject@HsTitleResolver@@SAABUQMetaObject@@XZ @ 219 NONAME ; struct QMetaObject const & HsTitleResolver::getStaticMetaObject(void)
	?trUtf8@XQAIWGetImageClient@@SA?AVQString@@PBD0@Z @ 220 NONAME ; class QString XQAIWGetImageClient::trUtf8(char const *, char const *)
	?stopFadeInAnimation@HsSnapLine@@AAEXXZ @ 221 NONAME ; void HsSnapLine::stopFadeInAnimation(void)
	?create@HsMenuDialogFactory@@UBEPAVHbMessageBox@@ABVQString@@W4Options@1@@Z @ 222 NONAME ; class HbMessageBox * HsMenuDialogFactory::create(class QString const &, enum HsMenuDialogFactory::Options) const
	?lenghtInAnchorPoints@HsWidgetOrganizer@@AAEHVQVariant@@@Z @ 223 NONAME ; int HsWidgetOrganizer::lenghtInAnchorPoints(class QVariant)
	?createArrangeCollectionEvent@HsMenuEventFactory@@SAPAVQEvent@@HH@Z @ 224 NONAME ; class QEvent * HsMenuEventFactory::createArrangeCollectionEvent(int, int)
	?deactivate@HsTrashBinWidget@@QAEXXZ @ 225 NONAME ; void HsTrashBinWidget::deactivate(void)
	?qt_metacast@HsImageGridWidget@@UAEPAXPBD@Z @ 226 NONAME ; void * HsImageGridWidget::qt_metacast(char const *)
	?isForward@HsPropertyAnimationWrapper@@QBE_NXZ @ 227 NONAME ; bool HsPropertyAnimationWrapper::isForward(void) const
	?tr@HsPageIndicator@@SA?AVQString@@PBD0H@Z @ 228 NONAME ; class QString HsPageIndicator::tr(char const *, char const *, int)
	?eventTest@HsMenuEventTransition@@MAE_NPAVQEvent@@@Z @ 229 NONAME ; bool HsMenuEventTransition::eventTest(class QEvent *)
	?qt_metacall@HsImageGridWidget@@UAEHW4Call@QMetaObject@@HPAPAX@Z @ 230 NONAME ; int HsImageGridWidget::qt_metacall(enum QMetaObject::Call, int, void * *)
	?showLine@HsSnapLine@@QAEXABVQLineF@@@Z @ 231 NONAME ; void HsSnapLine::showLine(class QLineF const &)
	?tr@HsMessageBoxWrapper@@SA?AVQString@@PBD0H@Z @ 232 NONAME ; class QString HsMessageBoxWrapper::tr(char const *, char const *, int)
	?qt_metacall@XQAIWGetImageClient@@UAEHW4Call@QMetaObject@@HPAPAX@Z @ 233 NONAME ; int XQAIWGetImageClient::qt_metacall(enum QMetaObject::Call, int, void * *)
	??0XQAIWGetImageClient@@QAE@XZ @ 234 NONAME ; XQAIWGetImageClient::XQAIWGetImageClient(void)
	?handleOk@HsImageFetcherClient@@AAEXABVQVariant@@@Z @ 235 NONAME ; void HsImageFetcherClient::handleOk(class QVariant const &)
	??0HsMenuEventTransition@@QAE@W4OperationType@HsMenuEvent@@PAVQState@@1@Z @ 236 NONAME ; HsMenuEventTransition::HsMenuEventTransition(enum HsMenuEvent::OperationType, class QState *, class QState *)
	?fetchFailed@XQAIWGetImageClient@@IAEXHABVQString@@@Z @ 237 NONAME ; void XQAIWGetImageClient::fetchFailed(int, class QString const &)
	??0HsTitleResolver@@QAE@PAVQObject@@@Z @ 238 NONAME ; HsTitleResolver::HsTitleResolver(class QObject *)
	?setConfiguration@HsSnapLine@@QAEXABV?$QHash@VQString@@VQVariant@@@@@Z @ 239 NONAME ; void HsSnapLine::setConfiguration(class QHash<class QString, class QVariant> const &)
	??_EHsPageIndicator@@UAE@I@Z @ 240 NONAME ; HsPageIndicator::~HsPageIndicator(unsigned int)
	?stopFadeOutAnimation@HsSnapLine@@AAEXXZ @ 241 NONAME ; void HsSnapLine::stopFadeOutAnimation(void)
	??_EHsWidgetPositioningOnOrientationChange@@UAE@I@Z @ 242 NONAME ; HsWidgetPositioningOnOrientationChange::~HsWidgetPositioningOnOrientationChange(unsigned int)
	?setUpActions@HsMenuDialogFactory@@ABEXPAVHbMessageBox@@ABVQStringList@@@Z @ 243 NONAME ; void HsMenuDialogFactory::setUpActions(class HbMessageBox *, class QStringList const &) const
	?compareRightSideOfMovingRectForSnapping@HsSnapToLines@@AAEXXZ @ 244 NONAME ; void HsSnapToLines::compareRightSideOfMovingRectForSnapping(void)
	?isRunning@HsPropertyAnimationWrapper@@QAE_NXZ @ 245 NONAME ; bool HsPropertyAnimationWrapper::isRunning(void)
	?mInstance@HsWidgetPositioningOnWidgetMove@@0PAV1@A @ 246 NONAME ; class HsWidgetPositioningOnWidgetMove * HsWidgetPositioningOnWidgetMove::mInstance
	?tr@XQAIWGetImageClient@@SA?AVQString@@PBD0@Z @ 247 NONAME ; class QString XQAIWGetImageClient::tr(char const *, char const *)
	?getAnchorCoordinates@HsWidgetOrganizer@@AAE?AVQPointF@@H@Z @ 248 NONAME ; class QPointF HsWidgetOrganizer::getAnchorCoordinates(int)
	?finished@HsPropertyAnimationWrapper@@IAEXXZ @ 249 NONAME ; void HsPropertyAnimationWrapper::finished(void)
	?addItem@HsPageIndicator@@QAEXH@Z @ 250 NONAME ; void HsPageIndicator::addItem(int)
	??0HsPageIndicator@@QAE@MPAVQGraphicsItem@@@Z @ 251 NONAME ; HsPageIndicator::HsPageIndicator(float, class QGraphicsItem *)
	?rejected@HsMessageBoxWrapper@@IAEXXZ @ 252 NONAME ; void HsMessageBoxWrapper::rejected(void)
	?tr@XQAIWGetImageClient@@SA?AVQString@@PBD0H@Z @ 253 NONAME ; class QString XQAIWGetImageClient::tr(char const *, char const *, int)
	?trUtf8@HsPropertyAnimationWrapper@@SA?AVQString@@PBD0H@Z @ 254 NONAME ; class QString HsPropertyAnimationWrapper::trUtf8(char const *, char const *, int)
	?qt_metacall@HsSpinnerDialog@@UAEHW4Call@QMetaObject@@HPAPAX@Z @ 255 NONAME ; int HsSpinnerDialog::qt_metacall(enum QMetaObject::Call, int, void * *)
	?mInstance@HsWidgetPositioningOnWidgetAdd@@0PAV1@A @ 256 NONAME ; class HsWidgetPositioningOnWidgetAdd * HsWidgetPositioningOnWidgetAdd::mInstance
	??1HsMessageBoxWrapper@@UAE@XZ @ 257 NONAME ; HsMessageBoxWrapper::~HsMessageBoxWrapper(void)
	?setInstance@HsWidgetPositioningOnWidgetAdd@@SAXPAV1@@Z @ 258 NONAME ; void HsWidgetPositioningOnWidgetAdd::setInstance(class HsWidgetPositioningOnWidgetAdd *)
	?qt_metacast@HsTitleResolver@@UAEPAXPBD@Z @ 259 NONAME ; void * HsTitleResolver::qt_metacast(char const *)
	??_EHsWidgetPositioningOnWidgetMove@@UAE@I@Z @ 260 NONAME ; HsWidgetPositioningOnWidgetMove::~HsWidgetPositioningOnWidgetMove(unsigned int)
	?extendHorizontalLine@HsSnapToLines@@AAEXXZ @ 261 NONAME ; void HsSnapToLines::extendHorizontalLine(void)
	?qt_metacall@HsTrashBinWidget@@UAEHW4Call@QMetaObject@@HPAPAX@Z @ 262 NONAME ; int HsTrashBinWidget::qt_metacall(enum QMetaObject::Call, int, void * *)
	?searchWidthSpace@HsWidgetOrganizer@@AAE_NABVQSizeF@@@Z @ 263 NONAME ; bool HsWidgetOrganizer::searchWidthSpace(class QSizeF const &)
	??1HsImageGridWidget@@UAE@XZ @ 264 NONAME ; HsImageGridWidget::~HsImageGridWidget(void)
	??_EHsAnchorPointInCenter@@UAE@I@Z @ 265 NONAME ; HsAnchorPointInCenter::~HsAnchorPointInCenter(unsigned int)
	?getStaticMetaObject@HsSpinnerDialog@@SAABUQMetaObject@@XZ @ 266 NONAME ; struct QMetaObject const & HsSpinnerDialog::getStaticMetaObject(void)
	?staticMetaObject@HsTitleResolver@@2UQMetaObject@@B @ 267 NONAME ; struct QMetaObject const HsTitleResolver::staticMetaObject
	?checkInactiveRectHorizontalEdgesInRange@HsSnapToLines@@AAEXM@Z @ 268 NONAME ; void HsSnapToLines::checkInactiveRectHorizontalEdgesInRange(float)
	??0HsPropertyAnimationWrapper@@QAE@PAVQObject@@@Z @ 269 NONAME ; HsPropertyAnimationWrapper::HsPropertyAnimationWrapper(class QObject *)
	?createHorizontalLine@HsSnapToLines@@AAEXXZ @ 270 NONAME ; void HsSnapToLines::createHorizontalLine(void)
	?tr@HsSnapLine@@SA?AVQString@@PBD0H@Z @ 271 NONAME ; class QString HsSnapLine::tr(char const *, char const *, int)
	?qt_metacall@HsImageFetcherClient@@UAEHW4Call@QMetaObject@@HPAPAX@Z @ 272 NONAME ; int HsImageFetcherClient::qt_metacall(enum QMetaObject::Call, int, void * *)
	??_EHsSpinnerDialog@@UAE@I@Z @ 273 NONAME ; HsSpinnerDialog::~HsSpinnerDialog(unsigned int)
	??0HsImageGridWidget@@QAE@ABVQStringList@@PAVQGraphicsItem@@@Z @ 274 NONAME ; HsImageGridWidget::HsImageGridWidget(class QStringList const &, class QGraphicsItem *)
	?tr@HsImageGridWidget@@SA?AVQString@@PBD0H@Z @ 275 NONAME ; class QString HsImageGridWidget::tr(char const *, char const *, int)

