EXPORTS
	_ZN10HnLiwUtils10GetStringLERK20CLiwGenericParamListRK6TDesC8R5RBuf8 @ 1 NONAME
	_ZN10HnLiwUtils10GetStringLERK20CLiwGenericParamListRK6TDesC8R6RBuf16 @ 2 NONAME
	_ZN10HnLiwUtils10GetStringLERK20CLiwGenericParamListRK6TDesC8iR5RBuf8 @ 3 NONAME
	_ZN10HnLiwUtils10GetStringLERK20CLiwGenericParamListRK6TDesC8iR6RBuf16 @ 4 NONAME
	_ZN10HnLiwUtils11GetVariantLERK20CLiwGenericParamListRK6TDesC8R11TLiwVariant @ 5 NONAME
	_ZN10HnLiwUtils11GetVariantLERK20CLiwGenericParamListRK6TDesC8iR11TLiwVariant @ 6 NONAME
	_ZN10HnLiwUtils16VariantToStringLER11TLiwVariantR5RBuf8 @ 7 NONAME
	_ZN10HnLiwUtils16VariantToStringLER11TLiwVariantR6RBuf16 @ 8 NONAME
	_ZN10HnLiwUtils20SetGenericParamListLERK13RPointerArrayI12CHnMdBaseKeyER20CLiwGenericParamList @ 9 NONAME
	_ZN10HnLiwUtils21GetIterableItemCountLER12CLiwIterable @ 10 NONAME
	_ZN10HnLiwUtils9GetInt64LERK20CLiwGenericParamListRK6TDesC8iRx @ 11 NONAME
	_ZN11HnConvUtils10Str8ToUintERK6TDesC8Rj @ 12 NONAME
	_ZN11HnConvUtils10StrToStr8LERK7TDesC16 @ 13 NONAME
	_ZN11HnConvUtils11NumToStr8LCERKi @ 14 NONAME
	_ZN11HnConvUtils11Str8ToStrLCERK6TDesC8 @ 15 NONAME
	_ZN11HnConvUtils11StrToStr8LCERK7TDesC16 @ 16 NONAME
	_ZN11HnConvUtils8StrToIntERK7TDesC16Ri @ 17 NONAME
	_ZN11HnConvUtils8StrToIntERK7TDesC16Rl @ 18 NONAME
	_ZN11HnConvUtils9Str8ToIntERK6TDesC8Ri @ 19 NONAME
	_ZN11HnConvUtils9Str8ToIntERK6TDesC8Rl @ 20 NONAME
	_ZN11HnConvUtils9Str8ToStrERK6TDesC8 @ 21 NONAME
	_ZN12CHnMdBaseKey10AddSubKeyLEPS_ @ 22 NONAME
	_ZN12CHnMdBaseKey10EvaluateLCERK20CLiwGenericParamListi @ 23 NONAME
	_ZN14HnMdKeyFactory7CreateLE14TXmlEngElement @ 24 NONAME
	_ZN14HnMdKeyFactory7CreateLERK6TDesC8S2_RK7TDesC16 @ 25 NONAME
	_ZN14HnMdKeyFactory7CreateLERK6TDesC8S2_S2_ @ 26 NONAME
	_ZN14HnMdKeyFactory8CreateLCE14TXmlEngElement @ 27 NONAME
	_ZN17CHnServiceHandler13HandleNotifyLEiiR20CLiwGenericParamListRKS0_ @ 28 NONAME
	_ZN17CHnServiceHandler4NewLERK6TDesC8S2_S2_12TServiceModeP20CLiwGenericParamListS5_ @ 29 NONAME
	_ZN17CHnServiceHandler5NewLCERK6TDesC8S2_S2_12TServiceModeP20CLiwGenericParamListS5_ @ 30 NONAME
	_ZN17CHnServiceHandler8ExecuteLEP18MLiwNotifyCallbacki @ 31 NONAME
	_ZN17CHnServiceHandler8ExecuteLER20CLiwGenericParamListR14TRequestStatus @ 32 NONAME
	_ZN17CHnServiceHandlerD0Ev @ 33 NONAME
	_ZN17CHnServiceHandlerD1Ev @ 34 NONAME
	_ZN17CHnServiceHandlerD2Ev @ 35 NONAME
	_ZN20CHnRepositoryManager19DeleteSuiteRelatedLERK7TDesC16 @ 36 NONAME
	_ZN20CHnRepositoryManager20ReadSuiteWidgetTypeLERK7TDesC16R18THnSuiteWidgetType @ 37 NONAME
	_ZN20CHnRepositoryManager21StoreSuiteWidgetTypeLERK7TDesC1618THnSuiteWidgetType @ 38 NONAME
	_ZN20CHnRepositoryManager4NewLEv @ 39 NONAME
	_ZN20CHnRepositoryManager5NewLCEv @ 40 NONAME
	_ZN20CHnRepositoryManagerD0Ev @ 41 NONAME
	_ZN20CHnRepositoryManagerD1Ev @ 42 NONAME
	_ZN20CHnRepositoryManagerD2Ev @ 43 NONAME
	_ZNK12CHnMdBaseKey10ToVariantLER11TLiwVariant @ 44 NONAME
	_ZNK12CHnMdBaseKey19ToGenericParamListLER20CLiwGenericParamList @ 45 NONAME
	_ZThn4_N17CHnServiceHandler13HandleNotifyLEiiR20CLiwGenericParamListRKS0_ @ 46 NONAME

