EXPORTS
	?AppName@CHgFswEntry@@QBEABVTDesC16@@XZ @ 1 NONAME ; class TDesC16 const & CHgFswEntry::AppName(void) const
	?AppUid@CHgFswEntry@@QBE?AVTUid@@XZ @ 2 NONAME ; class TUid CHgFswEntry::AppUid(void) const
	?ExternalizeArrayL@CHgFswEntry@@SAXAAVRWriteStream@@ABV?$RPointerArray@VCHgFswEntry@@@@@Z @ 3 NONAME ; void CHgFswEntry::ExternalizeArrayL(class RWriteStream &, class RPointerArray<class CHgFswEntry> const &)
	?ExternalizeL@CHgFswEntry@@QAEXAAVRWriteStream@@@Z @ 4 NONAME ; void CHgFswEntry::ExternalizeL(class RWriteStream &)
	?InternalizeArrayL@CHgFswEntry@@SAXAAVRReadStream@@AAV?$RPointerArray@VCHgFswEntry@@@@@Z @ 5 NONAME ; void CHgFswEntry::InternalizeArrayL(class RReadStream &, class RPointerArray<class CHgFswEntry> &)
	?InternalizeL@CHgFswEntry@@QAEXAAVRReadStream@@@Z @ 6 NONAME ; void CHgFswEntry::InternalizeL(class RReadStream &)
	?NewL@CHgFswEntry@@SAPAV1@XZ @ 7 NONAME ; class CHgFswEntry * CHgFswEntry::NewL(void)
	?NewLC@CHgFswEntry@@SAPAV1@XZ @ 8 NONAME ; class CHgFswEntry * CHgFswEntry::NewLC(void)
	?ScreenshotHandle@CHgFswEntry@@QBEHXZ @ 9 NONAME ; int CHgFswEntry::ScreenshotHandle(void) const
	?SetAppNameL@CHgFswEntry@@QAEXABVTDesC16@@@Z @ 10 NONAME ; void CHgFswEntry::SetAppNameL(class TDesC16 const &)
	?SetAppUid@CHgFswEntry@@QAEXABVTUid@@@Z @ 11 NONAME ; void CHgFswEntry::SetAppUid(class TUid const &)
	?SetScreenshotHandle@CHgFswEntry@@QAEXH@Z @ 12 NONAME ; void CHgFswEntry::SetScreenshotHandle(int)
	?SetWgId@CHgFswEntry@@QAEXH@Z @ 13 NONAME ; void CHgFswEntry::SetWgId(int)
	?WgId@CHgFswEntry@@QBEHXZ @ 14 NONAME ; int CHgFswEntry::WgId(void) const
	?AlwaysShown@CHgFswEntry@@QBEHXZ @ 15 NONAME ; int CHgFswEntry::AlwaysShown(void) const
	?SetAlwaysShown@CHgFswEntry@@QAEXH@Z @ 16 NONAME ; void CHgFswEntry::SetAlwaysShown(int)
	?AppIconBitmapHandle@CHgFswEntry@@QBEHXZ @ 17 NONAME ; int CHgFswEntry::AppIconBitmapHandle(void) const
	?AppIconMaskHandle@CHgFswEntry@@QBEHXZ @ 18 NONAME ; int CHgFswEntry::AppIconMaskHandle(void) const
	?SetAppIconHandles@CHgFswEntry@@QAEXHH@Z @ 19 NONAME ; void CHgFswEntry::SetAppIconHandles(int, int)
	?SetWidget@CHgFswEntry@@QAEXH@Z @ 20 NONAME ; void CHgFswEntry::SetWidget(int)
	?Widget@CHgFswEntry@@QBEHXZ @ 21 NONAME ; int CHgFswEntry::Widget(void) const
	?SetSystemApp@CHgFswEntry@@QAEXH@Z @ 22 NONAME ; void CHgFswEntry::SetSystemApp(int)
	?SystemApp@CHgFswEntry@@QBEHXZ @ 23 NONAME ; int CHgFswEntry::SystemApp(void) const

