EXPORTS
	?SetComponentNeedsCreation@CXnComponentNodeImpl@@QAEXH@Z @ 1 NONAME ; void CXnComponentNodeImpl::SetComponentNeedsCreation(int)
	?ScaleBitmapL@CXnUtils@@SAXABVTRect@@PAVCFbsBitmap@@1@Z @ 2 NONAME ; void CXnUtils::ScaleBitmapL(class TRect const &, class CFbsBitmap *, class CFbsBitmap *)
	?IsFocusedState@CXnNodePluginIf@@QAEHXZ @ 3 NONAME ; int CXnNodePluginIf::IsFocusedState(void)
	?ChildrenL@CXnNodePluginIf@@QAE?AV?$RPointerArray@VCXnNodePluginIf@@@@XZ @ 4 NONAME ; class RPointerArray<class CXnNodePluginIf> CXnNodePluginIf::ChildrenL(void)
	?DynInitMenuItemL@CXnAppUiAdapter@@UAEHABVTDesC16@@PAV?$RPointerArray@VCXnNodeAppIf@@@@@Z @ 5 NONAME ; int CXnAppUiAdapter::DynInitMenuItemL(class TDesC16 const &, class RPointerArray<class CXnNodeAppIf> *)
	?NewL@CXnComponent@@SAPAV1@XZ @ 6 NONAME ; class CXnComponent * CXnComponent::NewL(void)
	?FindNodeByIdL@TXnUiEngineAppIf@@QAEPAVCXnNodeAppIf@@ABVTDesC8@@0@Z @ 7 NONAME ; class CXnNodeAppIf * TXnUiEngineAppIf::FindNodeByIdL(class TDesC8 const &, class TDesC8 const &)
	?IsStateSet@CXnNodeAppIf@@QAEHABVTDesC8@@@Z @ 8 NONAME ; int CXnNodeAppIf::IsStateSet(class TDesC8 const &)
	?FindNodeByIdL@TXnUiEnginePluginIf@@QAEPAVCXnNodePluginIf@@ABVTDesC16@@0@Z @ 9 NONAME ; class CXnNodePluginIf * TXnUiEnginePluginIf::FindNodeByIdL(class TDesC16 const &, class TDesC16 const &)
	?AppIfL@CXnNodePluginIf@@QAEAAVCXnNodeAppIf@@XZ @ 10 NONAME ; class CXnNodeAppIf & CXnNodePluginIf::AppIfL(void)
	??1MXnComponentFactory@@UAE@XZ @ 11 NONAME ; MXnComponentFactory::~MXnComponentFactory(void)
	?ParentL@CXnNodePluginIf@@QBEPAV1@XZ @ 12 NONAME ; class CXnNodePluginIf * CXnNodePluginIf::ParentL(void) const
	?EnterPowerSaveModeL@CXnControlAdapter@@QAEXW4TModeEvent@1@@Z @ 13 NONAME ; void CXnControlAdapter::EnterPowerSaveModeL(enum CXnControlAdapter::TModeEvent)
	??0CXnComponentNodeImpl@@IAE@XZ @ 14 NONAME ; CXnComponentNodeImpl::CXnComponentNodeImpl(void)
	?SetLocalUiZoomL@CXnControlAdapter@@UAEXW4TAknUiZoom@@@Z @ 15 NONAME ; void CXnControlAdapter::SetLocalUiZoomL(enum TAknUiZoom)
	?SetDirtyL@CXnNodePluginIf@@QAEXXZ @ 16 NONAME ; void CXnNodePluginIf::SetDirtyL(void)
	?Draw@CXnControlAdapter@@UBEXABVTRect@@AAVCWindowGc@@@Z @ 17 NONAME ; void CXnControlAdapter::Draw(class TRect const &, class CWindowGc &) const
	?ShowTooltipsL@CXnNodeAppIf@@QAEXXZ @ 18 NONAME ; void CXnNodeAppIf::ShowTooltipsL(void)
	?MakeInterfaceL@CXnNodePluginIf@@QAEPAVMXnComponentInterface@XnComponentInterface@@ABVTDesC8@@@Z @ 19 NONAME ; class XnComponentInterface::MXnComponentInterface * CXnNodePluginIf::MakeInterfaceL(class TDesC8 const &)
	?SetBorderRect@CXnNodePluginIf@@QAEXABVTRect@@@Z @ 20 NONAME ; void CXnNodePluginIf::SetBorderRect(class TRect const &)
	?RenderUIL@TXnUiEnginePluginIf@@QAEXPAVCXnNodePluginIf@@@Z @ 21 NONAME ; void TXnUiEnginePluginIf::RenderUIL(class CXnNodePluginIf *)
	?TextAlignment@CXnUtils@@SA?AW4TGulAlignmentValue@@AAVCXnNodePluginIf@@@Z @ 22 NONAME ; enum TGulAlignmentValue CXnUtils::TextAlignment(class CXnNodePluginIf &)
	?Property@CXnProperty@@QAEPAVCXnDomProperty@@XZ @ 23 NONAME ; class CXnDomProperty * CXnProperty::Property(void)
	?Namespace@CXnNodePluginIf@@QAEABVTDesC8@@XZ @ 24 NONAME ; class TDesC8 const & CXnNodePluginIf::Namespace(void)
	?AddDirtyNodeL@TXnUiEnginePluginIf@@QAEXAAVCXnNodePluginIf@@@Z @ 25 NONAME ; void TXnUiEnginePluginIf::AddDirtyNodeL(class CXnNodePluginIf &)
	?SetPropertyL@CXnNodePluginIf@@QAEXPAVCXnProperty@@@Z @ 26 NONAME ; void CXnNodePluginIf::SetPropertyL(class CXnProperty *)
	?HorizontalPixelValueL@TXnUiEnginePluginIf@@QAEHPAVCXnProperty@@H@Z @ 27 NONAME ; int TXnUiEnginePluginIf::HorizontalPixelValueL(class CXnProperty *, int)
	?HandlePowerSaveModeL@CXnUtils@@SAHPAVCXnNode@@HH@Z @ 28 NONAME ; int CXnUtils::HandlePowerSaveModeL(class CXnNode *, int, int)
	?ContentBitmaps@CXnControlAdapter@@QAEXAAPAVCFbsBitmap@@0@Z @ 29 NONAME ; void CXnControlAdapter::ContentBitmaps(class CFbsBitmap * &, class CFbsBitmap * &)
	?HandlePropertyChangeL@CXnControlAdapter@@QAEXPAVCXnProperty@@@Z @ 30 NONAME ; void CXnControlAdapter::HandlePropertyChangeL(class CXnProperty *)
	?FocusHorLoopingL@CXnNodePluginIf@@QAEPAVCXnProperty@@XZ @ 31 NONAME ; class CXnProperty * CXnNodePluginIf::FocusHorLoopingL(void)
	?Control@CXnNodePluginIf@@QBEPAVCXnControlAdapter@@XZ @ 32 NONAME ; class CXnControlAdapter * CXnNodePluginIf::Control(void) const
	?GetPropertyL@CXnNodeAppIf@@QBEPAVCXnProperty@@AAV2@@Z @ 33 NONAME ; class CXnProperty * CXnNodeAppIf::GetPropertyL(class CXnProperty &) const
	?MakeInterfaceL@CXnComponentNodeImpl@@UAEPAVMXnComponentInterface@XnComponentInterface@@ABVTDesC8@@@Z @ 34 NONAME ; class XnComponentInterface::MXnComponentInterface * CXnComponentNodeImpl::MakeInterfaceL(class TDesC8 const &)
	?SkinChanged@CXnControlAdapter@@UAEXXZ @ 35 NONAME ; void CXnControlAdapter::SkinChanged(void)
	?SetContentBitmaps@CXnControlAdapter@@QAEXPAVCFbsBitmap@@0@Z @ 36 NONAME ; void CXnControlAdapter::SetContentBitmaps(class CFbsBitmap *, class CFbsBitmap *)
	?FindNodeByClassL@TXnUiEngineAppIf@@QAE?AV?$RPointerArray@VCXnNodeAppIf@@@@ABVTDesC16@@0@Z @ 37 NONAME ; class RPointerArray<class CXnNodeAppIf> TXnUiEngineAppIf::FindNodeByClassL(class TDesC16 const &, class TDesC16 const &)
	?ComponentNodeImpl@CXnNodePluginIf@@QAEPAVCXnComponentNodeImpl@@XZ @ 38 NONAME ; class CXnComponentNodeImpl * CXnNodePluginIf::ComponentNodeImpl(void)
	??0CXnViewsNodeImpl@@IAE@XZ @ 39 NONAME ; CXnViewsNodeImpl::CXnViewsNodeImpl(void)
	?HandlePointerEventL@CXnControlAdapter@@UAEXABUTPointerEvent@@@Z @ 40 NONAME ; void CXnControlAdapter::HandlePointerEventL(struct TPointerEvent const &)
	??1CXnDocument@@UAE@XZ @ 41 NONAME ; CXnDocument::~CXnDocument(void)
	?HandleResourceChangeL@CXnAppUiAdapter@@MAEXH@Z @ 42 NONAME ; void CXnAppUiAdapter::HandleResourceChangeL(int)
	?DoEnterPowerSaveModeL@CXnControlAdapter@@UAEXW4TModeEvent@1@@Z @ 43 NONAME ; void CXnControlAdapter::DoEnterPowerSaveModeL(enum CXnControlAdapter::TModeEvent)
	?CloneL@CXnProperty@@QAEPAV1@XZ @ 44 NONAME ; class CXnProperty * CXnProperty::CloneL(void)
	?ReportTriggerEventL@CXnNodePluginIf@@QAEXABVTDesC8@@00@Z @ 45 NONAME ; void CXnNodePluginIf::ReportTriggerEventL(class TDesC8 const &, class TDesC8 const &, class TDesC8 const &)
	?FocusedNodeL@TXnUiEnginePluginIf@@QAEPAVCXnNodePluginIf@@XZ @ 46 NONAME ; class CXnNodePluginIf * TXnUiEnginePluginIf::FocusedNodeL(void)
	?FindContentSourceNodesL@TXnUiEngineAppIf@@QAE?AV?$RPointerArray@VCXnNodeAppIf@@@@ABVTDesC8@@@Z @ 47 NONAME ; class RPointerArray<class CXnNodeAppIf> TXnUiEngineAppIf::FindContentSourceNodesL(class TDesC8 const &)
	?EqualsL@CXnProperty@@QBEHAAV1@@Z @ 48 NONAME ; int CXnProperty::EqualsL(class CXnProperty &) const
	?ScreenDeviceSize@TXnUiEnginePluginIf@@QAE?AVTSize@@XZ @ 49 NONAME ; class TSize TXnUiEnginePluginIf::ScreenDeviceSize(void)
	??0CXnControlAdapter@@IAE@XZ @ 50 NONAME ; CXnControlAdapter::CXnControlAdapter(void)
	?VisibleRowsL@CXnNodePluginIf@@QAEPAVCXnProperty@@XZ @ 51 NONAME ; class CXnProperty * CXnNodePluginIf::VisibleRowsL(void)
	?UiEngineL@CXnNodeAppIf@@QAEPAVTXnUiEngineAppIf@@XZ @ 52 NONAME ; class TXnUiEngineAppIf * CXnNodeAppIf::UiEngineL(void)
	?LongTapDetector@CXnControlAdapter@@QBEPAVCAknLongTapDetector@@XZ @ 53 NONAME ; class CAknLongTapDetector * CXnControlAdapter::LongTapDetector(void) const
	??0CXnAppUiAdapter@@QAE@VTUid@@@Z @ 54 NONAME ; CXnAppUiAdapter::CXnAppUiAdapter(class TUid)
	?Rect@CXnNodePluginIf@@QAE?AVTRect@@XZ @ 55 NONAME ; class TRect CXnNodePluginIf::Rect(void)
	?AddChildL@CXnNodePluginIf@@QAEXPAV1@@Z @ 56 NONAME ; void CXnNodePluginIf::AddChildL(class CXnNodePluginIf *)
	?SetNode@CXnComponent@@QAEXAAVCXnNodePluginIf@@@Z @ 57 NONAME ; void CXnComponent::SetNode(class CXnNodePluginIf &)
	?ResetStylusCounter@CXnControlAdapter@@QAEXXZ @ 58 NONAME ; void CXnControlAdapter::ResetStylusCounter(void)
	?SetComponent@CXnComponentNodeImpl@@QAEXPAVCXnComponent@@@Z @ 59 NONAME ; void CXnComponentNodeImpl::SetComponent(class CXnComponent *)
	?LayoutUIL@TXnUiEnginePluginIf@@QAEXPAVCXnNodePluginIf@@@Z @ 60 NONAME ; void TXnUiEnginePluginIf::LayoutUIL(class CXnNodePluginIf *)
	?LoadDataPluginsL@CXnAppUiAdapter@@UAEXAAV?$RPointerArray@VCXnNodeAppIf@@@@@Z @ 61 NONAME ; void CXnAppUiAdapter::LoadDataPluginsL(class RPointerArray<class CXnNodeAppIf> &)
	?FocusVisible@TXnUiEnginePluginIf@@QAEHXZ @ 62 NONAME ; int TXnUiEnginePluginIf::FocusVisible(void)
	?ExitPowerSaveModeL@CXnControlAdapter@@QAEXW4TModeEvent@1@@Z @ 63 NONAME ; void CXnControlAdapter::ExitPowerSaveModeL(enum CXnControlAdapter::TModeEvent)
	?GetThemeResource@TXnUiEngineAppIf@@QAEHABVTDesC16@@AAVRFile@@@Z @ 64 NONAME ; int TXnUiEngineAppIf::GetThemeResource(class TDesC16 const &, class RFile &)
	?ConstructL@CXnComponent@@IAEXXZ @ 65 NONAME ; void CXnComponent::ConstructL(void)
	?FindResource@CXnUtils@@SAPAVCXnResource@@AAV?$CArrayPtrSeg@VCXnResource@@@@ABVTDesC16@@AAH@Z @ 66 NONAME ; class CXnResource * CXnUtils::FindResource(class CArrayPtrSeg<class CXnResource> &, class TDesC16 const &, int &)
	?UnsetStateL@CXnNodeAppIf@@QAEXABVTDesC8@@@Z @ 67 NONAME ; void CXnNodeAppIf::UnsetStateL(class TDesC8 const &)
	?Uid@CXnDocument@@QAE?AVTUid@@XZ @ 68 NONAME ; class TUid CXnDocument::Uid(void)
	?FocusChanged@CXnControlAdapter@@UAEXW4TDrawNow@@@Z @ 69 NONAME ; void CXnControlAdapter::FocusChanged(enum TDrawNow)
	?SetBlank@CXnControlAdapter@@QAEXH@Z @ 70 NONAME ; void CXnControlAdapter::SetBlank(int)
	?SetLayoutCapable@CXnNodePluginIf@@QAEXH@Z @ 71 NONAME ; void CXnNodePluginIf::SetLayoutCapable(int)
	?MarginRect@CXnNodePluginIf@@QAE?AVTRect@@XZ @ 72 NONAME ; class TRect CXnNodePluginIf::MarginRect(void)
	?UiEngineL@CXnAppUiAdapter@@QAEPAVTXnUiEngineAppIf@@XZ @ 73 NONAME ; class TXnUiEngineAppIf * CXnAppUiAdapter::UiEngineL(void)
	?SwipeEnabledL@TXnUiEnginePluginIf@@QAEHXZ @ 74 NONAME ; int TXnUiEnginePluginIf::SwipeEnabledL(void)
	?SetFocusVisibleL@TXnUiEnginePluginIf@@QAEXH@Z @ 75 NONAME ; void TXnUiEnginePluginIf::SetFocusVisibleL(int)
	?ActiveView@TXnUiEngineAppIf@@QAEPAVCXnNodeAppIf@@XZ @ 76 NONAME ; class CXnNodeAppIf * TXnUiEngineAppIf::ActiveView(void)
	?GridOrientationL@CXnNodePluginIf@@QAEPAVCXnProperty@@XZ @ 77 NONAME ; class CXnProperty * CXnNodePluginIf::GridOrientationL(void)
	?HandleXuikonEventL@CXnAppUiAdapter@@UAEXAAVCXnNodeAppIf@@0AAVCXnDomNode@@1@Z @ 78 NONAME ; void CXnAppUiAdapter::HandleXuikonEventL(class CXnNodeAppIf &, class CXnNodeAppIf &, class CXnDomNode &, class CXnDomNode &)
	?RenderUIL@TXnUiEngineAppIf@@QAEXPAVCXnNodeAppIf@@@Z @ 79 NONAME ; void TXnUiEngineAppIf::RenderUIL(class CXnNodeAppIf *)
	?DoHandlePropertyChangeL@CXnControlAdapter@@UAEXPAVCXnProperty@@@Z @ 80 NONAME ; void CXnControlAdapter::DoHandlePropertyChangeL(class CXnProperty *)
	?ConstructL@CXnControlAdapter@@IAEXAAVCXnNodePluginIf@@@Z @ 81 NONAME ; void CXnControlAdapter::ConstructL(class CXnNodePluginIf &)
	?FocusedNode@TXnUiEngineAppIf@@QAEPAVCXnNodeAppIf@@XZ @ 82 NONAME ; class CXnNodeAppIf * TXnUiEngineAppIf::FocusedNode(void)
	?OfferKeyEventL@CXnControlAdapter@@UAE?AW4TKeyResponse@@ABUTKeyEvent@@W4TEventCode@@@Z @ 83 NONAME ; enum TKeyResponse CXnControlAdapter::OfferKeyEventL(struct TKeyEvent const &, enum TEventCode)
	?IsDrawingAllowed@CXnControlAdapter@@QBEHXZ @ 84 NONAME ; int CXnControlAdapter::IsDrawingAllowed(void) const
	?DisplayL@CXnNodePluginIf@@QAEPAVCXnProperty@@XZ @ 85 NONAME ; class CXnProperty * CXnNodePluginIf::DisplayL(void)
	?NewL@CXnProperty@@SAPAV1@ABVTDesC8@@PAVCXnDomPropertyValue@@AAVCXnDomStringPool@@@Z @ 86 NONAME ; class CXnProperty * CXnProperty::NewL(class TDesC8 const &, class CXnDomPropertyValue *, class CXnDomStringPool &)
	?Rect@CXnNodeAppIf@@QAE?AVTRect@@XZ @ 87 NONAME ; class TRect CXnNodeAppIf::Rect(void)
	?NewL@CXnComponentNodeImpl@@SAPAV1@PAVCXnType@@@Z @ 88 NONAME ; class CXnComponentNodeImpl * CXnComponentNodeImpl::NewL(class CXnType *)
	?GridVerDirectionL@CXnNodePluginIf@@QAEPAVCXnProperty@@XZ @ 89 NONAME ; class CXnProperty * CXnNodePluginIf::GridVerDirectionL(void)
	?WidgetsVisible@TXnUiEngineAppIf@@QBEHXZ @ 90 NONAME ; int TXnUiEngineAppIf::WidgetsVisible(void) const
	?Type@CXnNodePluginIf@@QAEPAVCXnType@@XZ @ 91 NONAME ; class CXnType * CXnNodePluginIf::Type(void)
	?MakeXnComponentL@MXnComponentFactory@@EAE?AW4TXnComponentFactoryResponse@1@AAVCXnNodePluginIf@@AAPAVCXnComponent@@@Z @ 92 NONAME ; enum MXnComponentFactory::TXnComponentFactoryResponse MXnComponentFactory::MakeXnComponentL(class CXnNodePluginIf &, class CXnComponent * &)
	?ActivateViewL@TXnUiEngineAppIf@@QAEXAAVCXnNodeAppIf@@@Z @ 93 NONAME ; void TXnUiEngineAppIf::ActivateViewL(class CXnNodeAppIf &)
	?UnsetStateL@CXnNodePluginIf@@QAEXABVTDesC8@@@Z @ 94 NONAME ; void CXnNodePluginIf::UnsetStateL(class TDesC8 const &)
	?StringValueL@CXnProperty@@QAEPAVHBufC16@@XZ @ 95 NONAME ; class HBufC16 * CXnProperty::StringValueL(void)
	?DisableRenderUiLC@TXnUiEnginePluginIf@@QAEXXZ @ 96 NONAME ; void TXnUiEnginePluginIf::DisableRenderUiLC(void)
	?SetPropertyL@CXnNodeAppIf@@QAEXPAVCXnProperty@@@Z @ 97 NONAME ; void CXnNodeAppIf::SetPropertyL(class CXnProperty *)
	?View@CXnAppUiAdapter@@QBEAAVCAknView@@XZ @ 98 NONAME ; class CAknView & CXnAppUiAdapter::View(void) const
	?ViewNodeImpl@CXnNodePluginIf@@QAEPAVCXnViewNodeImpl@@XZ @ 99 NONAME ; class CXnViewNodeImpl * CXnNodePluginIf::ViewNodeImpl(void)
	?StripQuotes@CXnUtils@@SAXAAPAVHBufC16@@@Z @ 100 NONAME ; void CXnUtils::StripQuotes(class HBufC16 * &)
	?SetPCDataL@CXnNodePluginIf@@QAEXABVTDesC8@@@Z @ 101 NONAME ; void CXnNodePluginIf::SetPCDataL(class TDesC8 const &)
	?DestroyDataPluginsL@CXnAppUiAdapter@@UAEXAAV?$RPointerArray@VCXnNodeAppIf@@@@@Z @ 102 NONAME ; void CXnAppUiAdapter::DestroyDataPluginsL(class RPointerArray<class CXnNodeAppIf> &)
	?VisibilityL@CXnNodePluginIf@@QAEPAVCXnProperty@@XZ @ 103 NONAME ; class CXnProperty * CXnNodePluginIf::VisibilityL(void)
	?Draw@CXnControlAdapter@@MBEXABVTRect@@@Z @ 104 NONAME ; void CXnControlAdapter::Draw(class TRect const &) const
	??1CXnApplication@@UAE@XZ @ 105 NONAME ; CXnApplication::~CXnApplication(void)
	?DoesNodeNeedComponentImplL@MXnComponentFactory@@QAEHABVTDesC8@@@Z @ 106 NONAME ; int MXnComponentFactory::DoesNodeNeedComponentImplL(class TDesC8 const &)
	?ConstructL@CXnViewsNodeImpl@@IAEXPAVCXnType@@@Z @ 107 NONAME ; void CXnViewsNodeImpl::ConstructL(class CXnType *)
	?StringPool@TXnUiEngineAppIf@@QAEAAVCXnDomStringPool@@XZ @ 108 NONAME ; class CXnDomStringPool & TXnUiEngineAppIf::StringPool(void)
	?UiEngineL@CXnNodePluginIf@@QAEPAVTXnUiEnginePluginIf@@XZ @ 109 NONAME ; class TXnUiEnginePluginIf * CXnNodePluginIf::UiEngineL(void)
	?ShowFocus@TXnUiEnginePluginIf@@QAEHXZ @ 110 NONAME ; int TXnUiEnginePluginIf::ShowFocus(void)
	?ResolveSkinItemIDL@CXnUtils@@SAHABVTDesC16@@AAVTAknsItemID@@@Z @ 111 NONAME ; int CXnUtils::ResolveSkinItemIDL(class TDesC16 const &, class TAknsItemID &)
	?PluginNodeL@TXnUiEnginePluginIf@@QAEAAVCXnNodePluginIf@@PAV2@@Z @ 112 NONAME ; class CXnNodePluginIf & TXnUiEnginePluginIf::PluginNodeL(class CXnNodePluginIf *)
	?VerticalPixelValueL@TXnUiEnginePluginIf@@QAEHPAVCXnProperty@@H@Z @ 113 NONAME ; int TXnUiEnginePluginIf::VerticalPixelValueL(class CXnProperty *, int)
	?SetComponent@CXnControlAdapter@@QAEXPAVCXnComponent@@@Z @ 114 NONAME ; void CXnControlAdapter::SetComponent(class CXnComponent *)
	??0MXnNodePredicate@@QAE@XZ @ 115 NONAME ; MXnNodePredicate::MXnNodePredicate(void)
	??1CXnViewsNodeImpl@@UAE@XZ @ 116 NONAME ; CXnViewsNodeImpl::~CXnViewsNodeImpl(void)
	?HandleControlEventL@CXnControlAdapter@@UAEXPAVCCoeControl@@W4TCoeEvent@MCoeControlObserver@@@Z @ 117 NONAME ; void CXnControlAdapter::HandleControlEventL(class CCoeControl *, enum MCoeControlObserver::TCoeEvent)
	?ActivateViewL@TXnUiEnginePluginIf@@QAEXAAVCXnNodePluginIf@@@Z @ 118 NONAME ; void TXnUiEnginePluginIf::ActivateViewL(class CXnNodePluginIf &)
	?HandleScreenDeviceChangedL@CXnControlAdapter@@UAEXXZ @ 119 NONAME ; void CXnControlAdapter::HandleScreenDeviceChangedL(void)
	?SizeChanged@CXnControlAdapter@@MAEXXZ @ 120 NONAME ; void CXnControlAdapter::SizeChanged(void)
	?CountComponentControls@CXnControlAdapter@@MBEHXZ @ 121 NONAME ; int CXnControlAdapter::CountComponentControls(void) const
	?HideTooltipsL@CXnNodeAppIf@@QAEXXZ @ 122 NONAME ; void CXnNodeAppIf::HideTooltipsL(void)
	?GetPropertyL@CXnNodeAppIf@@QBEPAVCXnProperty@@ABVTDesC8@@@Z @ 123 NONAME ; class CXnProperty * CXnNodeAppIf::GetPropertyL(class TDesC8 const &) const
	?GridScrollBarWidthL@CXnNodePluginIf@@QAEPAVCXnProperty@@XZ @ 124 NONAME ; class CXnProperty * CXnNodePluginIf::GridScrollBarWidthL(void)
	?DeactivateFocusedNodeL@TXnUiEnginePluginIf@@QAEXXZ @ 125 NONAME ; void TXnUiEnginePluginIf::DeactivateFocusedNodeL(void)
	?FindNodeByClassL@TXnUiEngineAppIf@@QAE?AV?$RPointerArray@VCXnNodeAppIf@@@@ABVTDesC8@@0@Z @ 126 NONAME ; class RPointerArray<class CXnNodeAppIf> TXnUiEngineAppIf::FindNodeByClassL(class TDesC8 const &, class TDesC8 const &)
	?Match@MXnNodePredicate@@UAEHAAVCXnNode@@@Z @ 127 NONAME ; int MXnNodePredicate::Match(class CXnNode &)
	?GetBitmapAndMask@CXnControlAdapter@@QAEXABVTDesC16@@0AAPAVCFbsBitmap@@1@Z @ 128 NONAME ; void CXnControlAdapter::GetBitmapAndMask(class TDesC16 const &, class TDesC16 const &, class CFbsBitmap * &, class CFbsBitmap * &)
	?NewL@CXnViewsNodeImpl@@SAPAV1@PAVCXnType@@@Z @ 129 NONAME ; class CXnViewsNodeImpl * CXnViewsNodeImpl::NewL(class CXnType *)
	?PaddingRect@CXnNodeAppIf@@QAE?AVTRect@@XZ @ 130 NONAME ; class TRect CXnNodeAppIf::PaddingRect(void)
	?SetMarginRect@CXnNodePluginIf@@QAEXABVTRect@@@Z @ 131 NONAME ; void CXnNodePluginIf::SetMarginRect(class TRect const &)
	?IsDialogDisplaying@TXnUiEnginePluginIf@@QAEHXZ @ 132 NONAME ; int TXnUiEnginePluginIf::IsDialogDisplaying(void)
	?GetPropertyL@CXnNodePluginIf@@QBEPAVCXnProperty@@ABVTDesC8@@@Z @ 133 NONAME ; class CXnProperty * CXnNodePluginIf::GetPropertyL(class TDesC8 const &) const
	?SetPropertyArrayL@CXnNodeAppIf@@QAEXPAV?$RPointerArray@VCXnProperty@@@@@Z @ 134 NONAME ; void CXnNodeAppIf::SetPropertyArrayL(class RPointerArray<class CXnProperty> *)
	?RestorePreviousFocusedNode@TXnUiEnginePluginIf@@QAEXXZ @ 135 NONAME ; void TXnUiEnginePluginIf::RestorePreviousFocusedNode(void)
	?EnterPowerSaveModeL@CXnComponent@@UAEXXZ @ 136 NONAME ; void CXnComponent::EnterPowerSaveModeL(void)
	?SetRect@CXnNodePluginIf@@QAEXABVTRect@@@Z @ 137 NONAME ; void CXnNodePluginIf::SetRect(class TRect const &)
	??0CXnComponent@@IAE@XZ @ 138 NONAME ; CXnComponent::CXnComponent(void)
	?CollapseWhiteSpace@CXnUtils@@SAXAAVCXnNodePluginIf@@AAVTDes16@@@Z @ 139 NONAME ; void CXnUtils::CollapseWhiteSpace(class CXnNodePluginIf &, class TDes16 &)
	?SetHandleTooltip@CXnNodePluginIf@@QAEXH@Z @ 140 NONAME ; void CXnNodePluginIf::SetHandleTooltip(int)
	??1CXnAppUiAdapter@@UAE@XZ @ 141 NONAME ; CXnAppUiAdapter::~CXnAppUiAdapter(void)
	?SetOnlineStateL@CXnAppUiAdapter@@UAEXAAV?$RPointerArray@VCXnNodeAppIf@@@@@Z @ 142 NONAME ; void CXnAppUiAdapter::SetOnlineStateL(class RPointerArray<class CXnNodeAppIf> &)
	?NewL@CXnControlAdapter@@SAPAV1@AAVCXnNodePluginIf@@@Z @ 143 NONAME ; class CXnControlAdapter * CXnControlAdapter::NewL(class CXnNodePluginIf &)
	?EnableLongTapAnimation@CXnControlAdapter@@QAEXH@Z @ 144 NONAME ; void CXnControlAdapter::EnableLongTapAnimation(int)
	?RefL@CXnNodePluginIf@@QAEPAVCXnProperty@@XZ @ 145 NONAME ; class CXnProperty * CXnNodePluginIf::RefL(void)
	?SetPaddingRect@CXnNodePluginIf@@QAEXABVTRect@@@Z @ 146 NONAME ; void CXnNodePluginIf::SetPaddingRect(class TRect const &)
	?FocusVerLoopingL@CXnNodePluginIf@@QAEPAVCXnProperty@@XZ @ 147 NONAME ; class CXnProperty * CXnNodePluginIf::FocusVerLoopingL(void)
	?SetFocusedNode@TXnUiEnginePluginIf@@QAEXPAVCXnNodePluginIf@@@Z @ 148 NONAME ; void TXnUiEnginePluginIf::SetFocusedNode(class CXnNodePluginIf *)
	?ExitPowerSaveModeL@CXnComponent@@UAEXXZ @ 149 NONAME ; void CXnComponent::ExitPowerSaveModeL(void)
	?EnableSwipeL@TXnUiEnginePluginIf@@QAEXH@Z @ 150 NONAME ; void TXnUiEnginePluginIf::EnableSwipeL(int)
	?GetPCData@CXnNodeAppIf@@QBEABVTDesC8@@XZ @ 151 NONAME ; class TDesC8 const & CXnNodeAppIf::GetPCData(void) const
	?Namespace@CXnNodeAppIf@@QAEABVTDesC8@@XZ @ 152 NONAME ; class TDesC8 const & CXnNodeAppIf::Namespace(void)
	??1CXnComponentNodeImpl@@UAE@XZ @ 153 NONAME ; CXnComponentNodeImpl::~CXnComponentNodeImpl(void)
	?SetPropertyWithoutNotificationL@CXnNodePluginIf@@QAEXPAVCXnProperty@@@Z @ 154 NONAME ; void CXnNodePluginIf::SetPropertyWithoutNotificationL(class CXnProperty *)
	?GetPCData@CXnNodePluginIf@@QBEABVTDesC8@@XZ @ 155 NONAME ; class TDesC8 const & CXnNodePluginIf::GetPCData(void) const
	?SetPCDataL@CXnNodeAppIf@@QAEXABVTDesC8@@@Z @ 156 NONAME ; void CXnNodeAppIf::SetPCDataL(class TDesC8 const &)
	?Resources@TXnUiEnginePluginIf@@QAEAAV?$CArrayPtrSeg@VCXnResource@@@@XZ @ 157 NONAME ; class CArrayPtrSeg<class CXnResource> & TXnUiEnginePluginIf::Resources(void)
	?SetContentBitmaps@CXnControlAdapter@@QAEXABVTDesC16@@0@Z @ 158 NONAME ; void CXnControlAdapter::SetContentBitmaps(class TDesC16 const &, class TDesC16 const &)
	??1CXnControlAdapter@@UAE@XZ @ 159 NONAME ; CXnControlAdapter::~CXnControlAdapter(void)
	??1MXnNodePredicate@@UAE@XZ @ 160 NONAME ; MXnNodePredicate::~MXnNodePredicate(void)
	?HorizontalTwipValueL@TXnUiEnginePluginIf@@QAEHPAVCXnProperty@@H@Z @ 161 NONAME ; int TXnUiEnginePluginIf::HorizontalTwipValueL(class CXnProperty *, int)
	?ConstructL@CXnAppUiAdapter@@UAEXXZ @ 162 NONAME ; void CXnAppUiAdapter::ConstructL(void)
	?CreateFontL@CXnUtils@@SAXAAVCXnNodePluginIf@@AAPAVCFont@@AAH@Z @ 163 NONAME ; void CXnUtils::CreateFontL(class CXnNodePluginIf &, class CFont * &, int &)
	??0CXnApplication@@QAE@VTUid@@@Z @ 164 NONAME ; CXnApplication::CXnApplication(class TUid)
	?ComponentControl@CXnControlAdapter@@MBEPAVCCoeControl@@H@Z @ 165 NONAME ; class CCoeControl * CXnControlAdapter::ComponentControl(int) const
	?HandlePageSwitch@CXnAppUiAdapter@@UAEXXZ @ 166 NONAME ; void CXnAppUiAdapter::HandlePageSwitch(void)
	?HandleLongTapEventL@CXnControlAdapter@@UAEXABVTPoint@@0@Z @ 167 NONAME ; void CXnControlAdapter::HandleLongTapEventL(class TPoint const &, class TPoint const &)
	?ParentL@CXnNodeAppIf@@QBEPAV1@XZ @ 168 NONAME ; class CXnNodeAppIf * CXnNodeAppIf::ParentL(void) const
	??1CXnComponent@@UAE@XZ @ 169 NONAME ; CXnComponent::~CXnComponent(void)
	?ControlAdapter@CXnComponent@@QAEPAVCXnControlAdapter@@XZ @ 170 NONAME ; class CXnControlAdapter * CXnComponent::ControlAdapter(void)
	?DrawContentImage@CXnControlAdapter@@IBEXXZ @ 171 NONAME ; void CXnControlAdapter::DrawContentImage(void) const
	?Component@CXnComponentNodeImpl@@QAEPAVCXnComponent@@XZ @ 172 NONAME ; class CXnComponent * CXnComponentNodeImpl::Component(void)
	?GridScrollBarMarginL@CXnNodePluginIf@@QAEPAVCXnProperty@@XZ @ 173 NONAME ; class CXnProperty * CXnNodePluginIf::GridScrollBarMarginL(void)
	?WidgetsVisible@TXnUiEnginePluginIf@@QBEHXZ @ 174 NONAME ; int TXnUiEnginePluginIf::WidgetsVisible(void) const
	?SetControlAdapter@CXnComponent@@QAEXPAVCXnControlAdapter@@@Z @ 175 NONAME ; void CXnComponent::SetControlAdapter(class CXnControlAdapter *)
	?GridColumnsL@CXnNodePluginIf@@QAEPAVCXnProperty@@XZ @ 176 NONAME ; class CXnProperty * CXnNodePluginIf::GridColumnsL(void)
	?SetStateL@CXnNodePluginIf@@QAEXABVTDesC8@@@Z @ 177 NONAME ; void CXnNodePluginIf::SetStateL(class TDesC8 const &)
	?DoesComponentNeedCreation@CXnComponentNodeImpl@@QBEHXZ @ 178 NONAME ; int CXnComponentNodeImpl::DoesComponentNeedCreation(void) const
	??0CXnDocument@@QAE@AAVCEikApplication@@VTUid@@@Z @ 179 NONAME ; CXnDocument::CXnDocument(class CEikApplication &, class TUid)
	?FindNodeByClassL@TXnUiEnginePluginIf@@QAE?AV?$RPointerArray@VCXnNodePluginIf@@@@ABVTDesC16@@@Z @ 180 NONAME ; class RPointerArray<class CXnNodePluginIf> TXnUiEnginePluginIf::FindNodeByClassL(class TDesC16 const &)
	?GridHorDirectionL@CXnNodePluginIf@@QAEPAVCXnProperty@@XZ @ 181 NONAME ; class CXnProperty * CXnNodePluginIf::GridHorDirectionL(void)
	?InternalDomNodeType@CXnNodeAppIf@@QBEABVTDesC8@@XZ @ 182 NONAME ; class TDesC8 const & CXnNodeAppIf::InternalDomNodeType(void) const
	?StringPool@TXnUiEnginePluginIf@@QAEAAVCXnDomStringPool@@XZ @ 183 NONAME ; class CXnDomStringPool & TXnUiEnginePluginIf::StringPool(void)
	?SetStateL@CXnNodeAppIf@@QAEXABVTDesC8@@@Z @ 184 NONAME ; void CXnNodeAppIf::SetStateL(class TDesC8 const &)
	?Type@CXnNodeAppIf@@QAEPAVCXnType@@XZ @ 185 NONAME ; class CXnType * CXnNodeAppIf::Type(void)
	?BorderRect@CXnNodeAppIf@@QAE?AVTRect@@XZ @ 186 NONAME ; class TRect CXnNodeAppIf::BorderRect(void)
	?IdL@CXnNodePluginIf@@QAEPAVCXnProperty@@XZ @ 187 NONAME ; class CXnProperty * CXnNodePluginIf::IdL(void)
	?RootNodeL@TXnUiEngineAppIf@@QAEAAVCXnNodeAppIf@@XZ @ 188 NONAME ; class CXnNodeAppIf & TXnUiEngineAppIf::RootNodeL(void)
	?CreateXnComponentL@MXnComponentFactory@@QAE?AW4TXnComponentFactoryResponse@1@AAVCXnNodePluginIf@@AAPAVCXnComponent@@@Z @ 189 NONAME ; enum MXnComponentFactory::TXnComponentFactoryResponse MXnComponentFactory::CreateXnComponentL(class CXnNodePluginIf &, class CXnComponent * &)
	?RefreshMenuL@TXnUiEngineAppIf@@QAEXXZ @ 190 NONAME ; void TXnUiEngineAppIf::RefreshMenuL(void)
	?PaddingRect@CXnNodePluginIf@@QAE?AVTRect@@XZ @ 191 NONAME ; class TRect CXnNodePluginIf::PaddingRect(void)
	?MeasureAdaptiveContentL@CXnControlAdapter@@UAE?AVTSize@@ABV2@@Z @ 192 NONAME ; class TSize CXnControlAdapter::MeasureAdaptiveContentL(class TSize const &)
	?NewL@CXnProperty@@SAPAV1@ABVTDesC8@@0W4TPrimitiveValueType@CXnDomPropertyValue@@AAVCXnDomStringPool@@@Z @ 193 NONAME ; class CXnProperty * CXnProperty::NewL(class TDesC8 const &, class TDesC8 const &, enum CXnDomPropertyValue::TPrimitiveValueType, class CXnDomStringPool &)
	?GetPropertyL@CXnNodePluginIf@@QBEPAVCXnProperty@@AAV2@@Z @ 194 NONAME ; class CXnProperty * CXnNodePluginIf::GetPropertyL(class CXnProperty &) const
	?HitRegion@TXnUiEnginePluginIf@@QBEPAVCXnControlAdapter@@XZ @ 195 NONAME ; class CXnControlAdapter * TXnUiEnginePluginIf::HitRegion(void) const
	?MarginRect@CXnNodeAppIf@@QAE?AVTRect@@XZ @ 196 NONAME ; class TRect CXnNodeAppIf::MarginRect(void)
	?MakeInterfaceL@CXnComponent@@UAEPAVMXnComponentInterface@XnComponentInterface@@ABVTDesC8@@@Z @ 197 NONAME ; class XnComponentInterface::MXnComponentInterface * CXnComponent::MakeInterfaceL(class TDesC8 const &)
	?EditMode@TXnUiEnginePluginIf@@QAEHXZ @ 198 NONAME ; int TXnUiEnginePluginIf::EditMode(void)
	?FindNodeByIdL@TXnUiEnginePluginIf@@QAEPAVCXnNodePluginIf@@ABVTDesC8@@0@Z @ 199 NONAME ; class CXnNodePluginIf * TXnUiEnginePluginIf::FindNodeByIdL(class TDesC8 const &, class TDesC8 const &)
	?EnableRenderUi@CXnUiEngineImpl@@CAXPAX@Z @ 200 NONAME ; void CXnUiEngineImpl::EnableRenderUi(void *)
	?IsMenuDisplaying@TXnUiEnginePluginIf@@QAEHXZ @ 201 NONAME ; int TXnUiEnginePluginIf::IsMenuDisplaying(void)
	?IsMenuDisplaying@TXnUiEngineAppIf@@QAEHXZ @ 202 NONAME ; int TXnUiEngineAppIf::IsMenuDisplaying(void)
	?NewL@CXnProperty@@SAPAV1@PAVCXnDomProperty@@@Z @ 203 NONAME ; class CXnProperty * CXnProperty::NewL(class CXnDomProperty *)
	?ConstructL@CXnComponentNodeImpl@@IAEXPAVCXnType@@@Z @ 204 NONAME ; void CXnComponentNodeImpl::ConstructL(class CXnType *)
	?ChildrenL@CXnNodeAppIf@@QAE?AV?$RPointerArray@VCXnNodeAppIf@@@@XZ @ 205 NONAME ; class RPointerArray<class CXnNodeAppIf> CXnNodeAppIf::ChildrenL(void)
	?ConvertHslToRgb@CXnUtils@@SA?AVTRgb@@HHH@Z @ 206 NONAME ; class TRgb CXnUtils::ConvertHslToRgb(int, int, int)
	?LoadBitmap@CXnControlAdapter@@QAEPAVCFbsBitmap@@ABVTDesC16@@@Z @ 207 NONAME ; class CFbsBitmap * CXnControlAdapter::LoadBitmap(class TDesC16 const &)
	??0MXnComponentFactory@@IAE@XZ @ 208 NONAME ; MXnComponentFactory::MXnComponentFactory(void)
	?SetComponent@CXnViewsNodeImpl@@QAEXPAVCXnComponent@@@Z @ 209 NONAME ; void CXnViewsNodeImpl::SetComponent(class CXnComponent *)
	?BorderRect@CXnNodePluginIf@@QAE?AVTRect@@XZ @ 210 NONAME ; class TRect CXnNodePluginIf::BorderRect(void)
	?CreateDocumentL@CXnApplication@@MAEPAVCApaDocument@@XZ @ 211 NONAME ; class CApaDocument * CXnApplication::CreateDocumentL(void)
	?CreateFontL@CXnUtils@@SAXABVTDesC16@@HVTFontStyle@@AAPAVCFont@@AAH@Z @ 212 NONAME ; void CXnUtils::CreateFontL(class TDesC16 const &, int, class TFontStyle, class CFont * &, int &)
	?GetPluginNodeArrayL@TXnUiEngineAppIf@@QAEHAAV?$RPointerArray@VCXnNodeAppIf@@@@@Z @ 213 NONAME ; int TXnUiEngineAppIf::GetPluginNodeArrayL(class RPointerArray<class CXnNodeAppIf> &)
	?MakeXnControlAdapterL@MXnComponentFactory@@EAEPAVCXnControlAdapter@@AAVCXnNodePluginIf@@PAV2@@Z @ 214 NONAME ; class CXnControlAdapter * MXnComponentFactory::MakeXnControlAdapterL(class CXnNodePluginIf &, class CXnControlAdapter *)
	?IsDrawingAllowed@CXnNodePluginIf@@QBEHXZ @ 215 NONAME ; int CXnNodePluginIf::IsDrawingAllowed(void) const
	?MakeInterfaceL@CXnNodeAppIf@@QAEPAVMXnComponentInterface@XnComponentInterface@@ABVTDesC8@@@Z @ 216 NONAME ; class XnComponentInterface::MXnComponentInterface * CXnNodeAppIf::MakeInterfaceL(class TDesC8 const &)
	?VerticalTwipValueL@TXnUiEnginePluginIf@@QAEHPAVCXnProperty@@H@Z @ 217 NONAME ; int TXnUiEnginePluginIf::VerticalTwipValueL(class CXnProperty *, int)
	?Component@CXnControlAdapter@@QAEPAVCXnComponent@@XZ @ 218 NONAME ; class CXnComponent * CXnControlAdapter::Component(void)
	?FloatValueL@CXnProperty@@QAENXZ @ 219 NONAME ; double CXnProperty::FloatValueL(void)
	?SetUiEngine@TXnUiEngineAppIf@@QAEXPAVCXnUiEngine@@@Z @ 220 NONAME ; void TXnUiEngineAppIf::SetUiEngine(class CXnUiEngine *)
	?FindNodeByIdL@TXnUiEngineAppIf@@QAEPAVCXnNodeAppIf@@ABVTDesC16@@0@Z @ 221 NONAME ; class CXnNodeAppIf * TXnUiEngineAppIf::FindNodeByIdL(class TDesC16 const &, class TDesC16 const &)
	?IsEditMode@TXnUiEngineAppIf@@QAEHXZ @ 222 NONAME ; int TXnUiEngineAppIf::IsEditMode(void)
	?ResolveSkinItemIDL@CXnUtils@@SAHABVTDesC16@@AAVTAknsItemID@@AAH@Z @ 223 NONAME ; int CXnUtils::ResolveSkinItemIDL(class TDesC16 const &, class TAknsItemID &, int &)
	?RootNodeL@TXnUiEnginePluginIf@@QAEAAVCXnNodePluginIf@@XZ @ 224 NONAME ; class CXnNodePluginIf & TXnUiEnginePluginIf::RootNodeL(void)
	?CreateAppUiL@CXnDocument@@UAEPAVCEikAppUi@@XZ @ 225 NONAME ; class CEikAppUi * CXnDocument::CreateAppUiL(void)
	?PathL@CXnNodePluginIf@@QAEPAVCXnProperty@@XZ @ 226 NONAME ; class CXnProperty * CXnNodePluginIf::PathL(void)
	?NewL@CXnProperty@@SAPAV1@ABVTDesC8@@NW4TPrimitiveValueType@CXnDomPropertyValue@@AAVCXnDomStringPool@@@Z @ 227 NONAME ; class CXnProperty * CXnProperty::NewL(class TDesC8 const &, double, enum CXnDomPropertyValue::TPrimitiveValueType, class CXnDomStringPool &)
	?MaskPathL@CXnNodePluginIf@@QAEPAVCXnProperty@@XZ @ 228 NONAME ; class CXnProperty * CXnNodePluginIf::MaskPathL(void)
	?AppDllUid@CXnApplication@@MBE?AVTUid@@XZ @ 229 NONAME ; class TUid CXnApplication::AppDllUid(void) const
	?DoExitPowerSaveModeL@CXnControlAdapter@@UAEXW4TModeEvent@1@@Z @ 230 NONAME ; void CXnControlAdapter::DoExitPowerSaveModeL(enum CXnControlAdapter::TModeEvent)
	?LabelL@CXnNodePluginIf@@QAEPAVCXnProperty@@XZ @ 231 NONAME ; class CXnProperty * CXnNodePluginIf::LabelL(void)
	?Component@CXnViewsNodeImpl@@QAEPAVCXnComponent@@XZ @ 232 NONAME ; class CXnComponent * CXnViewsNodeImpl::Component(void)
	?GetRgbValue@CXnUtils@@SAHAAVTRgb@@ABVTDesC8@@@Z @ 233 NONAME ; int CXnUtils::GetRgbValue(class TRgb &, class TDesC8 const &)
	?StringValue@CXnProperty@@QAEABVTDesC8@@XZ @ 234 NONAME ; class TDesC8 const & CXnProperty::StringValue(void)
	?SetVisible@CXnControlAdapter@@QAEXH@Z @ 235 NONAME ; void CXnControlAdapter::SetVisible(int)
	?Node@CXnComponent@@QAEPAVCXnNodePluginIf@@XZ @ 236 NONAME ; class CXnNodePluginIf * CXnComponent::Node(void)
	?HandleEnterEditModeL@CXnAppUiAdapter@@UAEXH@Z @ 237 NONAME ; void CXnAppUiAdapter::HandleEnterEditModeL(int)

