EXPORTS
	?trUtf8@HsScene@@SA?AVQString@@PBD0H@Z @ 1 NONAME ; class QString HsScene::trUtf8(char const *, char const *, int)
	?staticMetaObject@HsPageVisual@@2UQMetaObject@@B @ 2 NONAME ; struct QMetaObject const HsPageVisual::staticMetaObject
	?metaObject@HsConfiguration@@UBEPBUQMetaObject@@XZ @ 3 NONAME ; struct QMetaObject const * HsConfiguration::metaObject(void) const
	?aboutToUninstall@HsWidgetComponent@@IAEXXZ @ 4 NONAME ; void HsWidgetComponent::aboutToUninstall(void)
	??_EHsWidgetData@@QAE@I@Z @ 5 NONAME ; HsWidgetData::~HsWidgetData(unsigned int)
	?metaObject@HsHostedWidgetFactory@@UBEPBUQMetaObject@@XZ @ 6 NONAME ; struct QMetaObject const * HsHostedWidgetFactory::metaObject(void) const
	?pageChangeZoneAnimationDuration@HsConfiguration@@QBEHXZ @ 7 NONAME ; int HsConfiguration::pageChangeZoneAnimationDuration(void) const
	?takeInstance@HsHostedWidgetFactory@@SAPAV1@XZ @ 8 NONAME ; class HsHostedWidgetFactory * HsHostedWidgetFactory::takeInstance(void)
	?widgetDropEffectDuration@HsConfiguration@@QBEHXZ @ 9 NONAME ; int HsConfiguration::widgetDropEffectDuration(void) const
	?setMaximumPageCount@HsConfiguration@@QAEXH@Z @ 10 NONAME ; void HsConfiguration::setMaximumPageCount(int)
	?qt_metacast@HsShortcutService@@UAEPAXPBD@Z @ 11 NONAME ; void * HsShortcutService::qt_metacast(char const *)
	?propertyChanged@HsConfiguration@@IAEXABVQString@@@Z @ 12 NONAME ; void HsConfiguration::propertyChanged(class QString const &)
	?showWidget@HsWidgetHost@@QAEXXZ @ 13 NONAME ; void HsWidgetHost::showWidget(void)
	?setInstance@HsConfiguration@@SAXPAV1@@Z @ 14 NONAME ; void HsConfiguration::setInstance(class HsConfiguration *)
	?isActivePage@HsPage@@QBE_NXZ @ 15 NONAME ; bool HsPage::isActivePage(void) const
	?hidden@HsWidgetComponentDescriptor@@QBE?AVQString@@XZ @ 16 NONAME ; class QString HsWidgetComponentDescriptor::hidden(void) const
	?cancel@HsWallpaperLoader@@QAEXXZ @ 17 NONAME ; void HsWallpaperLoader::cancel(void)
	?metaObject@HsShortcutService@@UBEPBUQMetaObject@@XZ @ 18 NONAME ; struct QMetaObject const * HsShortcutService::metaObject(void) const
	?instance@HsBackupRestoreObserver@@SAPAV1@XZ @ 19 NONAME ; class HsBackupRestoreObserver * HsBackupRestoreObserver::instance(void)
	??1HsWidgetHostVisual@@UAE@XZ @ 20 NONAME ; HsWidgetHostVisual::~HsWidgetHostVisual(void)
	?load@HsPage@@QAE_NXZ @ 21 NONAME ; bool HsPage::load(void)
	?setSnapEnabled@HsConfiguration@@QAEX_N@Z @ 22 NONAME ; void HsConfiguration::setSnapEnabled(bool)
	?clockWidgetTapFeedbackEffect@HsConfiguration@@QBE?AW4InstantEffect@HbFeedback@@XZ @ 23 NONAME ; enum HbFeedback::InstantEffect HsConfiguration::clockWidgetTapFeedbackEffect(void) const
	?readyForBUR@HsBackupRestoreObserver@@QAEXXZ @ 24 NONAME ; void HsBackupRestoreObserver::readyForBUR(void)
	?handleEntryUpdated@HsWidgetComponentRegistry@@AAEXABVCaEntry@@ABVQString@@@Z @ 25 NONAME ; void HsWidgetComponentRegistry::handleEntryUpdated(class CaEntry const &, class QString const &)
	?instance@HsShortcutService@@SAPAV1@PAVQStateMachine@@@Z @ 26 NONAME ; class HsShortcutService * HsShortcutService::instance(class QStateMachine *)
	?staticMetaObject@HsDatabase@@2UQMetaObject@@B @ 27 NONAME ; struct QMetaObject const HsDatabase::staticMetaObject
	??1HsSceneWallpaper@@UAE@XZ @ 28 NONAME ; HsSceneWallpaper::~HsSceneWallpaper(void)
	?setActivePageIndex@HsScene@@QAE_NH@Z @ 29 NONAME ; bool HsScene::setActivePageIndex(int)
	??1HsContentService@@UAE@XZ @ 30 NONAME ; HsContentService::~HsContentService(void)
	?widgetPreference@HsDatabase@@QAE_NHABVQString@@AAVQVariant@@@Z @ 31 NONAME ; bool HsDatabase::widgetPreference(int, class QString const &, class QVariant &)
	?tr@HsBackupRestoreObserver@@SA?AVQString@@PBD0H@Z @ 32 NONAME ; class QString HsBackupRestoreObserver::tr(char const *, char const *, int)
	?setOnline@HsScene@@QAEX_N@Z @ 33 NONAME ; void HsScene::setOnline(bool)
	?updateIconItem@HsWallpaper@@AAEXW4Orientation@Qt@@@Z @ 34 NONAME ; void HsWallpaper::updateIconItem(enum Qt::Orientation)
	?getStaticMetaObject@HsWidgetComponentRegistry@@SAABUQMetaObject@@XZ @ 35 NONAME ; struct QMetaObject const & HsWidgetComponentRegistry::getStaticMetaObject(void)
	?trUtf8@HsPageWallpaper@@SA?AVQString@@PBD0@Z @ 36 NONAME ; class QString HsPageWallpaper::trUtf8(char const *, char const *)
	??0HsWidgetComponentRegistry@@AAE@PAVQObject@@@Z @ 37 NONAME ; HsWidgetComponentRegistry::HsWidgetComponentRegistry(class QObject *)
	?NewL@CHsBURActiveCallback@@SAPAV1@PAVHsBackupRestoreObserver@@@Z @ 38 NONAME ; class CHsBURActiveCallback * CHsBURActiveCallback::NewL(class HsBackupRestoreObserver *)
	?action_unload@HsWidgetHost@@AAEXXZ @ 39 NONAME ; void HsWidgetHost::action_unload(void)
	?visualModel@HsWidgetHostVisual@@QBEPAVHsWidgetHost@@XZ @ 40 NONAME ; class HsWidgetHost * HsWidgetHostVisual::visualModel(void) const
	?tr@HsBackupRestoreObserver@@SA?AVQString@@PBD0@Z @ 41 NONAME ; class QString HsBackupRestoreObserver::tr(char const *, char const *)
	?setMinimumWidgetWidth@HsConfiguration@@QAEXM@Z @ 42 NONAME ; void HsConfiguration::setMinimumWidgetWidth(float)
	?event_show@HsWidgetHost@@IAEXXZ @ 43 NONAME ; void HsWidgetHost::event_show(void)
	?setBounceAnimationEasingCurve@HsConfiguration@@QAEXW4Type@QEasingCurve@@@Z @ 44 NONAME ; void HsConfiguration::setBounceAnimationEasingCurve(enum QEasingCurve::Type)
	?wallpaperDirectory@HsSceneWallpaper@@MBE?AVQString@@XZ @ 45 NONAME ; class QString HsSceneWallpaper::wallpaperDirectory(void) const
	?setWidgetMoveBlockedFeedbackEffect@HsConfiguration@@QAEXW4InstantEffect@HbFeedback@@@Z @ 46 NONAME ; void HsConfiguration::setWidgetMoveBlockedFeedbackEffect(enum HbFeedback::InstantEffect)
	?imageSetFailed@HsWallpaper@@IAEXXZ @ 47 NONAME ; void HsWallpaper::imageSetFailed(void)
	?trUtf8@HsWidgetHostVisual@@SA?AVQString@@PBD0@Z @ 48 NONAME ; class QString HsWidgetHostVisual::trUtf8(char const *, char const *)
	?setSnapForce@HsConfiguration@@QAEXM@Z @ 49 NONAME ; void HsConfiguration::setSnapForce(float)
	??0HsWidgetData@@QAE@XZ @ 50 NONAME ; HsWidgetData::HsWidgetData(void)
	?event_backupRestoreCompleted@HsBackupRestoreObserver@@IAEXXZ @ 51 NONAME ; void HsBackupRestoreObserver::event_backupRestoreCompleted(void)
	?staticMetaObject@HsWidgetHostVisual@@2UQMetaObject@@B @ 52 NONAME ; struct QMetaObject const HsWidgetHostVisual::staticMetaObject
	?setActivePage@HsScene@@QAE_NPAVHsPage@@@Z @ 53 NONAME ; bool HsScene::setActivePage(class HsPage *)
	?setSceneX@HsIdleWidget@@QAEXM@Z @ 54 NONAME ; void HsIdleWidget::setSceneX(float)
	?qt_metacast@HsContentService@@UAEPAXPBD@Z @ 55 NONAME ; void * HsContentService::qt_metacast(char const *)
	?qt_metacall@HsContentService@@UAEHW4Call@QMetaObject@@HPAPAX@Z @ 56 NONAME ; int HsContentService::qt_metacall(enum QMetaObject::Call, int, void * *)
	?qt_metacall@HsSceneWallpaper@@UAEHW4Call@QMetaObject@@HPAPAX@Z @ 57 NONAME ; int HsSceneWallpaper::qt_metacall(enum QMetaObject::Call, int, void * *)
	?widgets@HsContentService@@QAE_NABVQString@@ABV?$QHash@VQString@@VQVariant@@@@AAH@Z @ 58 NONAME ; bool HsContentService::widgets(class QString const &, class QHash<class QString, class QVariant> const &, int &)
	?createWidget@HsHostedWidgetFactory@@QAEPAVQObject@@ABVQString@@@Z @ 59 NONAME ; class QObject * HsHostedWidgetFactory::createWidget(class QString const &)
	?metaObject@HsDatabase@@UBEPBUQMetaObject@@XZ @ 60 NONAME ; struct QMetaObject const * HsDatabase::metaObject(void) const
	?contentGeometry@HsPage@@QAE?AVQRectF@@W4Orientation@Qt@@@Z @ 61 NONAME ; class QRectF HsPage::contentGeometry(enum Qt::Orientation)
	?exportToFile@HsConfiguration@@QAE_NABVQString@@@Z @ 62 NONAME ; bool HsConfiguration::exportToFile(class QString const &)
	?widgetStartFaulted@HsContentService@@AAEXXZ @ 63 NONAME ; void HsContentService::widgetStartFaulted(void)
	??_EHsWidgetHostVisual@@UAE@I@Z @ 64 NONAME ; HsWidgetHostVisual::~HsWidgetHostVisual(unsigned int)
	?setPageChangePanDistance@HsConfiguration@@QAEXM@Z @ 65 NONAME ; void HsConfiguration::setPageChangePanDistance(float)
	?qt_metacast@HsSceneWallpaper@@UAEPAXPBD@Z @ 66 NONAME ; void * HsSceneWallpaper::qt_metacast(char const *)
	?metaObject@HsWallpaperLoader@@UBEPBUQMetaObject@@XZ @ 67 NONAME ; struct QMetaObject const * HsWallpaperLoader::metaObject(void) const
	?action_finished@HsWidgetHost@@AAEXXZ @ 68 NONAME ; void HsWidgetHost::action_finished(void)
	?visual@HsWidgetHost@@QBEPAVHsWidgetHostVisual@@XZ @ 69 NONAME ; class HsWidgetHostVisual * HsWidgetHost::visual(void) const
	?pageChangeFeedbackEffect@HsConfiguration@@QBE?AW4InstantEffect@HbFeedback@@XZ @ 70 NONAME ; enum HbFeedback::InstantEffect HsConfiguration::pageChangeFeedbackEffect(void) const
	??0HsWallpaperLoader@@QAE@PAVQObject@@@Z @ 71 NONAME ; HsWallpaperLoader::HsWallpaperLoader(class QObject *)
	?trUtf8@HsShortcutService@@SA?AVQString@@PBD0H@Z @ 72 NONAME ; class QString HsShortcutService::trUtf8(char const *, char const *, int)
	?maximumWidgetWidth@HsConfiguration@@QBEMXZ @ 73 NONAME ; float HsConfiguration::maximumWidgetWidth(void) const
	?metaObject@HsContentService@@UBEPBUQMetaObject@@XZ @ 74 NONAME ; struct QMetaObject const * HsContentService::metaObject(void) const
	?setScene@HsSceneWallpaper@@QAEXPAVHsScene@@@Z @ 75 NONAME ; void HsSceneWallpaper::setScene(class HsScene *)
	?onPageMarginChanged@HsPage@@AAEXABVQString@@@Z @ 76 NONAME ; void HsPage::onPageMarginChanged(class QString const &)
	?finished@HsWidgetHost@@IAEXXZ @ 77 NONAME ; void HsWidgetHost::finished(void)
	?pagePanStarted@HsScene@@IAEXPAVQGestureEvent@@@Z @ 78 NONAME ; void HsScene::pagePanStarted(class QGestureEvent *)
	?addPage@HsScene@@QAE_NPAVHsPage@@@Z @ 79 NONAME ; bool HsScene::addPage(class HsPage *)
	?controlLayer@HsIdleWidget@@QBEPAVHbWidget@@XZ @ 80 NONAME ; class HbWidget * HsIdleWidget::controlLayer(void) const
	?qt_metacall@HsWidgetHost@@UAEHW4Call@QMetaObject@@HPAPAX@Z @ 81 NONAME ; int HsWidgetHost::qt_metacall(enum QMetaObject::Call, int, void * *)
	?configuration@HsDatabase@@QAE_NAAV?$QHash@VQString@@VQVariant@@@@@Z @ 82 NONAME ; bool HsDatabase::configuration(class QHash<class QString, class QVariant> &)
	?tr@HsContentService@@SA?AVQString@@PBD0@Z @ 83 NONAME ; class QString HsContentService::tr(char const *, char const *)
	?mInstance@HsHostedWidgetFactory@@0PAV1@A @ 84 NONAME ; class HsHostedWidgetFactory * HsHostedWidgetFactory::mInstance
	?setInstance@HsHostedWidgetFactory@@SAPAV1@PAV1@@Z @ 85 NONAME ; class HsHostedWidgetFactory * HsHostedWidgetFactory::setInstance(class HsHostedWidgetFactory *)
	?staticMetaObject@HsScene@@2UQMetaObject@@B @ 86 NONAME ; struct QMetaObject const HsScene::staticMetaObject
	?setMaximumWidgetWidth@HsConfiguration@@QAEXM@Z @ 87 NONAME ; void HsConfiguration::setMaximumWidgetWidth(float)
	?scene@HsDatabase@@QAE_NAAVHsSceneData@@@Z @ 88 NONAME ; bool HsDatabase::scene(class HsSceneData &)
	?resetNewWidgets@HsPage@@QAEXXZ @ 89 NONAME ; void HsPage::resetNewWidgets(void)
	?tr@HsScene@@SA?AVQString@@PBD0@Z @ 90 NONAME ; class QString HsScene::tr(char const *, char const *)
	?tr@HsPage@@SA?AVQString@@PBD0@Z @ 91 NONAME ; class QString HsPage::tr(char const *, char const *)
	?emitAvailable@HsWidgetComponent@@AAEXXZ @ 92 NONAME ; void HsWidgetComponent::emitAvailable(void)
	?getStaticMetaObject@HsDatabase@@SAABUQMetaObject@@XZ @ 93 NONAME ; struct QMetaObject const & HsDatabase::getStaticMetaObject(void)
	?contentRect@HsPage@@QAE?AVQRectF@@XZ @ 94 NONAME ; class QRectF HsPage::contentRect(void)
	?tr@HsPageVisual@@SA?AVQString@@PBD0@Z @ 95 NONAME ; class QString HsPageVisual::tr(char const *, char const *)
	?setIconUri@HsWidgetComponentDescriptor@@QAEXABVQString@@@Z @ 96 NONAME ; void HsWidgetComponentDescriptor::setIconUri(class QString const &)
	?orientationChanged@HsGui@@IAEXW4Orientation@Qt@@@Z @ 97 NONAME ; void HsGui::orientationChanged(enum Qt::Orientation)
	?widgetAdded@HsContentService@@IAEXABVQString@@ABV?$QHash@VQString@@VQVariant@@@@@Z @ 98 NONAME ; void HsContentService::widgetAdded(class QString const &, class QHash<class QString, class QVariant> const &)
	?staticMetaObject@HsWallpaperLoaderThread@@2UQMetaObject@@B @ 99 NONAME ; struct QMetaObject const HsWallpaperLoaderThread::staticMetaObject
	?databaseName@HsDatabase@@QBE?AVQString@@XZ @ 100 NONAME ; class QString HsDatabase::databaseName(void) const
	?setPageChangeAnimationEasingCurve@HsConfiguration@@QAEXW4Type@QEasingCurve@@@Z @ 101 NONAME ; void HsConfiguration::setPageChangeAnimationEasingCurve(enum QEasingCurve::Type)
	?setPageChangeZoneAnimationDuration@HsConfiguration@@QAEXH@Z @ 102 NONAME ; void HsConfiguration::setPageChangeZoneAnimationDuration(int)
	?qt_metacast@HsIdleWidget@@UAEPAXPBD@Z @ 103 NONAME ; void * HsIdleWidget::qt_metacast(char const *)
	?executeCollectionAction@HsShortcutService@@QAEXHABVQString@@@Z @ 104 NONAME ; void HsShortcutService::executeCollectionAction(int, class QString const &)
	?widgets@HsDatabase@@QAE_NABVQString@@ABV?$QHash@VQString@@VQVariant@@@@AAH@Z @ 105 NONAME ; bool HsDatabase::widgets(class QString const &, class QHash<class QString, class QVariant> const &, int &)
	?qt_metacast@HsWallpaperLoaderThread@@UAEPAXPBD@Z @ 106 NONAME ; void * HsWallpaperLoaderThread::qt_metacast(char const *)
	?pageCrawlingAnimation@HsGui@@QAEPAVHsPropertyAnimationWrapper@@XZ @ 107 NONAME ; class HsPropertyAnimationWrapper * HsGui::pageCrawlingAnimation(void)
	?setSceneType@HsConfiguration@@QAEXW4SceneType@1@@Z @ 108 NONAME ; void HsConfiguration::setSceneType(enum HsConfiguration::SceneType)
	?layoutNewWidgets@HsPage@@QAEXXZ @ 109 NONAME ; void HsPage::layoutNewWidgets(void)
	?matchWidgetPreferences@HsDatabase@@AAE_NABV?$QHash@VQString@@VQVariant@@@@ABV?$QMultiMap@VQString@@V1@@@@Z @ 110 NONAME ; bool HsDatabase::matchWidgetPreferences(class QHash<class QString, class QVariant> const &, class QMultiMap<class QString, class QString> const &)
	?tr@HsWidgetHostVisual@@SA?AVQString@@PBD0@Z @ 111 NONAME ; class QString HsWidgetHostVisual::tr(char const *, char const *)
	?targetSize@HsWallpaperLoaderThread@@QBE?AVQSize@@XZ @ 112 NONAME ; class QSize HsWallpaperLoaderThread::targetSize(void) const
	?trUtf8@HsWallpaperLoader@@SA?AVQString@@PBD0H@Z @ 113 NONAME ; class QString HsWallpaperLoader::trUtf8(char const *, char const *, int)
	?event_remove@HsWidgetHost@@IAEXXZ @ 114 NONAME ; void HsWidgetHost::event_remove(void)
	?startDropEffect@HsWidgetHost@@QAEXXZ @ 115 NONAME ; void HsWidgetHost::startDropEffect(void)
	?trUtf8@HsWidgetComponentRegistry@@SA?AVQString@@PBD0@Z @ 116 NONAME ; class QString HsWidgetComponentRegistry::trUtf8(char const *, char const *)
	?event_close@HsWidgetHost@@IAEXXZ @ 117 NONAME ; void HsWidgetHost::event_close(void)
	??1HsWallpaperLoader@@UAE@XZ @ 118 NONAME ; HsWallpaperLoader::~HsWallpaperLoader(void)
	?mInstance@HsBackupRestoreObserver@@0PAV1@A @ 119 NONAME ; class HsBackupRestoreObserver * HsBackupRestoreObserver::mInstance
	?connectWidget@HsPage@@AAEXPAVHsWidgetHost@@@Z @ 120 NONAME ; void HsPage::connectWidget(class HsWidgetHost *)
	?setShortcutLabelVisible@HsConfiguration@@QAEX_N@Z @ 121 NONAME ; void HsConfiguration::setShortcutLabelVisible(bool)
	?sceneLayer@HsIdleWidget@@QBEPAVHbWidget@@XZ @ 122 NONAME ; class HbWidget * HsIdleWidget::sceneLayer(void) const
	?trUtf8@HsWallpaperLoaderThread@@SA?AVQString@@PBD0@Z @ 123 NONAME ; class QString HsWallpaperLoaderThread::trUtf8(char const *, char const *)
	?qt_metacast@HsScene@@UAEPAXPBD@Z @ 124 NONAME ; void * HsScene::qt_metacast(char const *)
	??1HsWidgetHost@@UAE@XZ @ 125 NONAME ; HsWidgetHost::~HsWidgetHost(void)
	?uninstallComponent@HsWidgetComponentRegistry@@QAEXABVHsWidgetComponentDescriptor@@@Z @ 126 NONAME ; void HsWidgetComponentRegistry::uninstallComponent(class HsWidgetComponentDescriptor const &)
	?action_notifyRemove@HsWidgetHost@@AAEXXZ @ 127 NONAME ; void HsWidgetHost::action_notifyRemove(void)
	?open@HsDatabase@@QAE_NXZ @ 128 NONAME ; bool HsDatabase::open(void)
	?idleWidget@HsGui@@QBEPAVHsIdleWidget@@XZ @ 129 NONAME ; class HsIdleWidget * HsGui::idleWidget(void) const
	?pageMargin@HsConfiguration@@QBEMXZ @ 130 NONAME ; float HsConfiguration::pageMargin(void) const
	?failed@HsWallpaperLoader@@IAEXXZ @ 131 NONAME ; void HsWallpaperLoader::failed(void)
	?setPos@HsWidgetPresentationData@@QAEXABVQPointF@@@Z @ 132 NONAME ; void HsWidgetPresentationData::setPos(class QPointF const &)
	?isSnapEffectsEnabled@HsConfiguration@@QBE_NXZ @ 133 NONAME ; bool HsConfiguration::isSnapEffectsEnabled(void) const
	?trUtf8@HsWallpaperLoaderThread@@SA?AVQString@@PBD0H@Z @ 134 NONAME ; class QString HsWallpaperLoaderThread::trUtf8(char const *, char const *, int)
	?setSourcePath@HsWallpaperLoaderThread@@QAEXABVQString@@@Z @ 135 NONAME ; void HsWallpaperLoaderThread::setSourcePath(class QString const &)
	?tr@HsGui@@SA?AVQString@@PBD0@Z @ 136 NONAME ; class QString HsGui::tr(char const *, char const *)
	?disconnectWidget@HsPage@@AAEXPAVHsWidgetHost@@@Z @ 137 NONAME ; void HsPage::disconnectWidget(class HsWidgetHost *)
	?setOnline@HsPage@@QAEX_N@Z @ 138 NONAME ; void HsPage::setOnline(bool)
	?tr@HsDatabase@@SA?AVQString@@PBD0@Z @ 139 NONAME ; class QString HsDatabase::tr(char const *, char const *)
	?onLoaderFailed@HsWallpaper@@AAEXXZ @ 140 NONAME ; void HsWallpaper::onLoaderFailed(void)
	?trUtf8@HsScene@@SA?AVQString@@PBD0@Z @ 141 NONAME ; class QString HsScene::trUtf8(char const *, char const *)
	?uninstallTranslator@HsWidgetComponent@@AAEXXZ @ 142 NONAME ; void HsWidgetComponent::uninstallTranslator(void)
	?setGeometry@HsIdleWidget@@UAEXABVQRectF@@@Z @ 143 NONAME ; void HsIdleWidget::setGeometry(class QRectF const &)
	?updateZValues@HsPage@@QAEXXZ @ 144 NONAME ; void HsPage::updateZValues(void)
	?tr@HsShortcutService@@SA?AVQString@@PBD0H@Z @ 145 NONAME ; class QString HsShortcutService::tr(char const *, char const *, int)
	?pos@HsWidgetPresentationData@@QBE?AVQPointF@@XZ @ 146 NONAME ; class QPointF HsWidgetPresentationData::pos(void) const
	?getStaticMetaObject@HsBackupRestoreObserver@@SAABUQMetaObject@@XZ @ 147 NONAME ; struct QMetaObject const & HsBackupRestoreObserver::getStaticMetaObject(void)
	?trUtf8@HsPageVisual@@SA?AVQString@@PBD0@Z @ 148 NONAME ; class QString HsPageVisual::trUtf8(char const *, char const *)
	?action_show@HsWidgetHost@@AAEXXZ @ 149 NONAME ; void HsWidgetHost::action_show(void)
	?pageLayer@HsIdleWidget@@QBEPAVHbWidget@@XZ @ 150 NONAME ; class HbWidget * HsIdleWidget::pageLayer(void) const
	?setSnapGap@HsConfiguration@@QAEXM@Z @ 151 NONAME ; void HsConfiguration::setSnapGap(float)
	?trUtf8@HsHostedWidgetFactory@@SA?AVQString@@PBD0@Z @ 152 NONAME ; class QString HsHostedWidgetFactory::trUtf8(char const *, char const *)
	?setActiveWidget@HsScene@@QAEXPAVHsWidgetHost@@@Z @ 153 NONAME ; void HsScene::setActiveWidget(class HsWidgetHost *)
	?transaction@HsDatabase@@QAE_NXZ @ 154 NONAME ; bool HsDatabase::transaction(void)
	?snapForce@HsConfiguration@@QBEMXZ @ 155 NONAME ; float HsConfiguration::snapForce(void) const
	?isOnline@HsScene@@QBE_NXZ @ 156 NONAME ; bool HsScene::isOnline(void) const
	??0HsWidgetPresentationData@@QAE@XZ @ 157 NONAME ; HsWidgetPresentationData::HsWidgetPresentationData(void)
	?tr@HsShortcutService@@SA?AVQString@@PBD0@Z @ 158 NONAME ; class QString HsShortcutService::tr(char const *, char const *)
	?metaObject@HsWidgetComponent@@UBEPBUQMetaObject@@XZ @ 159 NONAME ; struct QMetaObject const * HsWidgetComponent::metaObject(void) const
	?setConnectionName@HsDatabase@@QAEXABVQString@@@Z @ 160 NONAME ; void HsDatabase::setConnectionName(class QString const &)
	?qt_metacall@HsGui@@UAEHW4Call@QMetaObject@@HPAPAX@Z @ 161 NONAME ; int HsGui::qt_metacall(enum QMetaObject::Call, int, void * *)
	?metaObject@HsWallpaper@@UBEPBUQMetaObject@@XZ @ 162 NONAME ; struct QMetaObject const * HsWallpaper::metaObject(void) const
	?removeWidget@HsPage@@QAE_NPAVHsWidgetHost@@@Z @ 163 NONAME ; bool HsPage::removeWidget(class HsWidgetHost *)
	?trUtf8@HsPageVisual@@SA?AVQString@@PBD0H@Z @ 164 NONAME ; class QString HsPageVisual::trUtf8(char const *, char const *, int)
	?tr@HsWallpaperLoaderThread@@SA?AVQString@@PBD0@Z @ 165 NONAME ; class QString HsWallpaperLoaderThread::tr(char const *, char const *)
	?qt_metacall@HsWallpaper@@UAEHW4Call@QMetaObject@@HPAPAX@Z @ 166 NONAME ; int HsWallpaper::qt_metacall(enum QMetaObject::Call, int, void * *)
	?onWidgetUnavailable@HsPage@@AAEXXZ @ 167 NONAME ; void HsPage::onWidgetUnavailable(void)
	?mInstance@HsDatabase@@0PAV1@A @ 168 NONAME ; class HsDatabase * HsDatabase::mInstance
	?available@HsWidgetComponent@@IAEXXZ @ 169 NONAME ; void HsWidgetComponent::available(void)
	?tr@HsSceneWallpaper@@SA?AVQString@@PBD0@Z @ 170 NONAME ; class QString HsSceneWallpaper::tr(char const *, char const *)
	?trUtf8@HsPage@@SA?AVQString@@PBD0@Z @ 171 NONAME ; class QString HsPage::trUtf8(char const *, char const *)
	?trUtf8@HsWidgetHostVisual@@SA?AVQString@@PBD0H@Z @ 172 NONAME ; class QString HsWidgetHostVisual::trUtf8(char const *, char const *, int)
	?hideWidgets@HsPage@@QAEXXZ @ 173 NONAME ; void HsPage::hideWidgets(void)
	?trUtf8@HsWidgetHost@@SA?AVQString@@PBD0H@Z @ 174 NONAME ; class QString HsWidgetHost::trUtf8(char const *, char const *, int)
	?qt_metacall@HsHostedWidgetFactory@@UAEHW4Call@QMetaObject@@HPAPAX@Z @ 175 NONAME ; int HsHostedWidgetFactory::qt_metacall(enum QMetaObject::Call, int, void * *)
	??0HsScene@@QAE@PAVQObject@@@Z @ 176 NONAME ; HsScene::HsScene(class QObject *)
	?getStaticMetaObject@HsPageVisual@@SAABUQMetaObject@@XZ @ 177 NONAME ; struct QMetaObject const & HsPageVisual::getStaticMetaObject(void)
	?pagePanUpdated@HsScene@@IAEXPAVQGestureEvent@@@Z @ 178 NONAME ; void HsScene::pagePanUpdated(class QGestureEvent *)
	?showTrashBin@HsIdleWidget@@QAEXXZ @ 179 NONAME ; void HsIdleWidget::showTrashBin(void)
	?qt_metacast@HsWidgetHost@@UAEPAXPBD@Z @ 180 NONAME ; void * HsWidgetHost::qt_metacast(char const *)
	?trUtf8@HsWallpaperLoader@@SA?AVQString@@PBD0@Z @ 181 NONAME ; class QString HsWallpaperLoader::trUtf8(char const *, char const *)
	?qt_metacall@HsWidgetComponentRegistry@@UAEHW4Call@QMetaObject@@HPAPAX@Z @ 182 NONAME ; int HsWidgetComponentRegistry::qt_metacall(enum QMetaObject::Call, int, void * *)
	?setMaximumWidgetHeight@HsConfiguration@@QAEXM@Z @ 183 NONAME ; void HsConfiguration::setMaximumWidgetHeight(float)
	?qt_metacall@HsPageVisual@@UAEHW4Call@QMetaObject@@HPAPAX@Z @ 184 NONAME ; int HsPageVisual::qt_metacall(enum QMetaObject::Call, int, void * *)
	?instance@HsConfiguration@@SAPAV1@XZ @ 185 NONAME ; class HsConfiguration * HsConfiguration::instance(void)
	?tr@HsWallpaperLoader@@SA?AVQString@@PBD0H@Z @ 186 NONAME ; class QString HsWallpaperLoader::tr(char const *, char const *, int)
	??_EHsConfiguration@@UAE@I@Z @ 187 NONAME ; HsConfiguration::~HsConfiguration(unsigned int)
	?metaObject@HsPage@@UBEPBUQMetaObject@@XZ @ 188 NONAME ; struct QMetaObject const * HsPage::metaObject(void) const
	?activePageIndex@HsScene@@QBEHXZ @ 189 NONAME ; int HsScene::activePageIndex(void) const
	?qt_metacast@HsWidgetHostVisual@@UAEPAXPBD@Z @ 190 NONAME ; void * HsWidgetHostVisual::qt_metacast(char const *)
	?hideHorizontalSnapLine@HsIdleWidget@@QAEXXZ @ 191 NONAME ; void HsIdleWidget::hideHorizontalSnapLine(void)
	?minimumWidgetWidth@HsConfiguration@@QBEMXZ @ 192 NONAME ; float HsConfiguration::minimumWidgetWidth(void) const
	?setWidgetPreferences@HsDatabase@@QAE_NHABV?$QHash@VQString@@VQVariant@@@@@Z @ 193 NONAME ; bool HsDatabase::setWidgetPreferences(int, class QHash<class QString, class QVariant> const &)
	?orientation@HsGui@@QAE?AW4Orientation@Qt@@XZ @ 194 NONAME ; enum Qt::Orientation HsGui::orientation(void)
	?deleteWidget@HsDatabase@@QAE_NH@Z @ 195 NONAME ; bool HsDatabase::deleteWidget(int)
	?widgetOverTrashbinFeedbackEffect@HsConfiguration@@QBE?AW4InstantEffect@HbFeedback@@XZ @ 196 NONAME ; enum HbFeedback::InstantEffect HsConfiguration::widgetOverTrashbinFeedbackEffect(void) const
	?deleteFromDatabase@HsPage@@QAE_NXZ @ 197 NONAME ; bool HsPage::deleteFromDatabase(void)
	?setWidgetPresentation@HsDatabase@@QAE_NABVHsWidgetPresentationData@@@Z @ 198 NONAME ; bool HsDatabase::setWidgetPresentation(class HsWidgetPresentationData const &)
	?takeInstance@HsGui@@SAPAV1@XZ @ 199 NONAME ; class HsGui * HsGui::takeInstance(void)
	??0HsConfiguration@@QAE@PAVQObject@@@Z @ 200 NONAME ; HsConfiguration::HsConfiguration(class QObject *)
	?setDefaultImage@HsWallpaper@@QAEXXZ @ 201 NONAME ; void HsWallpaper::setDefaultImage(void)
	?setupTouchArea@HsPageVisual@@AAEXXZ @ 202 NONAME ; void HsPageVisual::setupTouchArea(void)
	?trUtf8@HsWidgetComponent@@SA?AVQString@@PBD0H@Z @ 203 NONAME ; class QString HsWidgetComponent::trUtf8(char const *, char const *, int)
	?setWidget@HsWidgetHostVisual@@QAEXPAVQObject@@@Z @ 204 NONAME ; void HsWidgetHostVisual::setWidget(class QObject *)
	?importFromFile@HsConfiguration@@QAE_NABVQString@@@Z @ 205 NONAME ; bool HsConfiguration::importFromFile(class QString const &)
	?page@HsDatabase@@QAE_NAAVHsPageData@@@Z @ 206 NONAME ; bool HsDatabase::page(class HsPageData &)
	??_EHsPage@@UAE@I@Z @ 207 NONAME ; HsPage::~HsPage(unsigned int)
	?instance@HsHostedWidgetFactory@@SAPAV1@XZ @ 208 NONAME ; class HsHostedWidgetFactory * HsHostedWidgetFactory::instance(void)
	?staticMetaObject@HsPage@@2UQMetaObject@@B @ 209 NONAME ; struct QMetaObject const HsPage::staticMetaObject
	?widgetDropFeedbackEffect@HsConfiguration@@QBE?AW4InstantEffect@HbFeedback@@XZ @ 210 NONAME ; enum HbFeedback::InstantEffect HsConfiguration::widgetDropFeedbackEffect(void) const
	?pageChangeZoneReverseAnimationDuration@HsConfiguration@@QBEHXZ @ 211 NONAME ; int HsConfiguration::pageChangeZoneReverseAnimationDuration(void) const
	?createWidget@HsContentService@@QAE_NABV?$QHash@VQString@@VQVariant@@@@@Z @ 212 NONAME ; bool HsContentService::createWidget(class QHash<class QString, class QVariant> const &)
	?setVersion@HsWidgetComponentDescriptor@@QAEXABVQString@@@Z @ 213 NONAME ; void HsWidgetComponentDescriptor::setVersion(class QString const &)
	?getStaticMetaObject@HsWallpaperLoader@@SAABUQMetaObject@@XZ @ 214 NONAME ; struct QMetaObject const & HsWallpaperLoader::getStaticMetaObject(void)
	?mInstance@HsWidgetComponentRegistry@@0PAV1@A @ 215 NONAME ; class HsWidgetComponentRegistry * HsWidgetComponentRegistry::mInstance
	?staticMetaObject@HsWidgetHost@@2UQMetaObject@@B @ 216 NONAME ; struct QMetaObject const HsWidgetHost::staticMetaObject
	?qt_metacast@HsPageVisual@@UAEPAXPBD@Z @ 217 NONAME ; void * HsPageVisual::qt_metacast(char const *)
	?qt_metacall@HsShortcutService@@UAEHW4Call@QMetaObject@@HPAPAX@Z @ 218 NONAME ; int HsShortcutService::qt_metacall(enum QMetaObject::Call, int, void * *)
	??1HsPageWallpaper@@UAE@XZ @ 219 NONAME ; HsPageWallpaper::~HsPageWallpaper(void)
	?startDropEffect@HsWidgetHostVisual@@QAEXXZ @ 220 NONAME ; void HsWidgetHostVisual::startDropEffect(void)
	?activeWidget@HsScene@@QBEPAVHsWidgetHost@@XZ @ 221 NONAME ; class HsWidgetHost * HsScene::activeWidget(void) const
	?widgets@HsDatabase@@QAE_NABVQString@@AAV?$QList@VHsWidgetData@@@@@Z @ 222 NONAME ; bool HsDatabase::widgets(class QString const &, class QList<class HsWidgetData> &)
	?rootDirectory@HsWallpaper@@IBE?AVQString@@XZ @ 223 NONAME ; class QString HsWallpaper::rootDirectory(void) const
	?tr@HsContentService@@SA?AVQString@@PBD0H@Z @ 224 NONAME ; class QString HsContentService::tr(char const *, char const *, int)
	??0HsDatabase@@QAE@PAVQObject@@@Z @ 225 NONAME ; HsDatabase::HsDatabase(class QObject *)
	?eventFilter@HsWidgetHostVisual@@MAE_NPAVQObject@@PAVQEvent@@@Z @ 226 NONAME ; bool HsWidgetHostVisual::eventFilter(class QObject *, class QEvent *)
	?tr@HsWidgetHost@@SA?AVQString@@PBD0@Z @ 227 NONAME ; class QString HsWidgetHost::tr(char const *, char const *)
	?remove@HsWallpaper@@QAEXXZ @ 228 NONAME ; void HsWallpaper::remove(void)
	?idleView@HsGui@@QBEPAVHbView@@XZ @ 229 NONAME ; class HbView * HsGui::idleView(void) const
	??1HsPageVisual@@UAE@XZ @ 230 NONAME ; HsPageVisual::~HsPageVisual(void)
	?widgetMoveBlockedFeedbackEffect@HsConfiguration@@QBE?AW4InstantEffect@HbFeedback@@XZ @ 231 NONAME ; enum HbFeedback::InstantEffect HsConfiguration::widgetMoveBlockedFeedbackEffect(void) const
	?widgetPickFeedbackEffect@HsConfiguration@@QBE?AW4InstantEffect@HbFeedback@@XZ @ 232 NONAME ; enum HbFeedback::InstantEffect HsConfiguration::widgetPickFeedbackEffect(void) const
	?widgetSnappingFeedbackEffect@HsConfiguration@@QBE?AW4InstantEffect@HbFeedback@@XZ @ 233 NONAME ; enum HbFeedback::InstantEffect HsConfiguration::widgetSnappingFeedbackEffect(void) const
	?load@HsScene@@QAE_NXZ @ 234 NONAME ; bool HsScene::load(void)
	?trUtf8@HsSceneWallpaper@@SA?AVQString@@PBD0H@Z @ 235 NONAME ; class QString HsSceneWallpaper::trUtf8(char const *, char const *, int)
	?tr@HsConfiguration@@SA?AVQString@@PBD0@Z @ 236 NONAME ; class QString HsConfiguration::tr(char const *, char const *)
	?widgetRepositionFeedbackEffect@HsConfiguration@@QBE?AW4InstantEffect@HbFeedback@@XZ @ 237 NONAME ; enum HbFeedback::InstantEffect HsConfiguration::widgetRepositionFeedbackEffect(void) const
	?onError@HsWidgetHost@@AAEXXZ @ 238 NONAME ; void HsWidgetHost::onError(void)
	?cleanup@HsWallpaperLoader@@AAEXXZ @ 239 NONAME ; void HsWallpaperLoader::cleanup(void)
	?targets@HsWallpaperLoader@@QBE?AV?$QHash@VQString@@VQVariant@@@@XZ @ 240 NONAME ; class QHash<class QString, class QVariant> HsWallpaperLoader::targets(void) const
	??0HsShortcutService@@AAE@PAVQStateMachine@@PAVQObject@@@Z @ 241 NONAME ; HsShortcutService::HsShortcutService(class QStateMachine *, class QObject *)
	?hideVerticalSnapLine@HsIdleWidget@@QAEXXZ @ 242 NONAME ; void HsIdleWidget::hideVerticalSnapLine(void)
	?setActivePage@HsIdleWidget@@QAEXH@Z @ 243 NONAME ; void HsIdleWidget::setActivePage(int)
	?setSnapLineFadeOutDuration@HsConfiguration@@QAEXH@Z @ 244 NONAME ; void HsConfiguration::setSnapLineFadeOutDuration(int)
	?polishEvent@HsIdleWidget@@MAEXXZ @ 245 NONAME ; void HsIdleWidget::polishEvent(void)
	?tr@HsPageWallpaper@@SA?AVQString@@PBD0H@Z @ 246 NONAME ; class QString HsPageWallpaper::tr(char const *, char const *, int)
	?widgetDropToTrashbinFeedbackEffect@HsConfiguration@@QBE?AW4InstantEffect@HbFeedback@@XZ @ 247 NONAME ; enum HbFeedback::InstantEffect HsConfiguration::widgetDropToTrashbinFeedbackEffect(void) const
	?staticMetaObject@HsPageWallpaper@@2UQMetaObject@@B @ 248 NONAME ; struct QMetaObject const HsPageWallpaper::staticMetaObject
	?onWidgetFinished@HsPage@@AAEXXZ @ 249 NONAME ; void HsPage::onWidgetFinished(void)
	?onThreadFinished@HsWallpaperLoader@@AAEXXZ @ 250 NONAME ; void HsWallpaperLoader::onThreadFinished(void)
	?tr@HsWidgetComponentRegistry@@SA?AVQString@@PBD0H@Z @ 251 NONAME ; class QString HsWidgetComponentRegistry::tr(char const *, char const *, int)
	?loadControlLayer@HsIdleWidget@@AAEXXZ @ 252 NONAME ; void HsIdleWidget::loadControlLayer(void)
	?action_initialize@HsWidgetHost@@AAEXXZ @ 253 NONAME ; void HsWidgetHost::action_initialize(void)
	?sceneX@HsIdleWidget@@QBEMXZ @ 254 NONAME ; float HsIdleWidget::sceneX(void) const
	?action_load@HsWidgetHost@@AAEXXZ @ 255 NONAME ; void HsWidgetHost::action_load(void)
	?connectionName@HsDatabase@@QBE?AVQString@@XZ @ 256 NONAME ; class QString HsDatabase::connectionName(void) const
	?snapLineFadeInDuration@HsConfiguration@@QBEHXZ @ 257 NONAME ; int HsConfiguration::snapLineFadeInDuration(void) const
	?setMethod@HsWidgetHost@@AAE_NPBDAAVQMetaMethod@@@Z @ 258 NONAME ; bool HsWidgetHost::setMethod(char const *, class QMetaMethod &)
	?setInstance@HsDatabase@@SAXPAV1@@Z @ 259 NONAME ; void HsDatabase::setInstance(class HsDatabase *)
	??0HsWallpaper@@QAE@PAVQGraphicsItem@@@Z @ 260 NONAME ; HsWallpaper::HsWallpaper(class QGraphicsItem *)
	?setSnapEffectsEnabled@HsConfiguration@@QAEX_N@Z @ 261 NONAME ; void HsConfiguration::setSnapEffectsEnabled(bool)
	?newPageAddedAnimationDuration@HsConfiguration@@QBEHXZ @ 262 NONAME ; int HsConfiguration::newPageAddedAnimationDuration(void) const
	?getStaticMetaObject@HsWallpaperLoaderThread@@SAABUQMetaObject@@XZ @ 263 NONAME ; struct QMetaObject const & HsWallpaperLoaderThread::getStaticMetaObject(void)
	?commit@HsDatabase@@QAE_NXZ @ 264 NONAME ; bool HsDatabase::commit(void)
	?trUtf8@HsDatabase@@SA?AVQString@@PBD0@Z @ 265 NONAME ; class QString HsDatabase::trUtf8(char const *, char const *)
	?mousePressEvent@HsWidgetHostVisual@@MAEXPAVQGraphicsSceneMouseEvent@@@Z @ 266 NONAME ; void HsWidgetHostVisual::mousePressEvent(class QGraphicsSceneMouseEvent *)
	?tr@HsWidgetComponent@@SA?AVQString@@PBD0H@Z @ 267 NONAME ; class QString HsWidgetComponent::tr(char const *, char const *, int)
	?backupRestoreStarted@HsBackupRestoreObserver@@QAEXXZ @ 268 NONAME ; void HsBackupRestoreObserver::backupRestoreStarted(void)
	?qt_metacast@HsPageWallpaper@@UAEPAXPBD@Z @ 269 NONAME ; void * HsPageWallpaper::qt_metacast(char const *)
	?trUtf8@HsWidgetHost@@SA?AVQString@@PBD0@Z @ 270 NONAME ; class QString HsWidgetHost::trUtf8(char const *, char const *)
	?setDefaultPageId@HsConfiguration@@QAEXH@Z @ 271 NONAME ; void HsConfiguration::setDefaultPageId(int)
	?metaObject@HsWidgetHostVisual@@UBEPBUQMetaObject@@XZ @ 272 NONAME ; struct QMetaObject const * HsWidgetHostVisual::metaObject(void) const
	?installTranslator@HsWidgetComponent@@AAEXXZ @ 273 NONAME ; void HsWidgetComponent::installTranslator(void)
	?bounceAnimationEasingCurve@HsConfiguration@@QBE?AW4Type@QEasingCurve@@XZ @ 274 NONAME ; enum QEasingCurve::Type HsConfiguration::bounceAnimationEasingCurve(void) const
	??_EHsIdleWidget@@UAE@I@Z @ 275 NONAME ; HsIdleWidget::~HsIdleWidget(unsigned int)
	?qt_metacall@HsWidgetComponent@@UAEHW4Call@QMetaObject@@HPAPAX@Z @ 276 NONAME ; int HsWidgetComponent::qt_metacall(enum QMetaObject::Call, int, void * *)
	?qt_metacall@HsConfiguration@@UAEHW4Call@QMetaObject@@HPAPAX@Z @ 277 NONAME ; int HsConfiguration::qt_metacall(enum QMetaObject::Call, int, void * *)
	?cleanupIdleUi@HsGui@@QAEXXZ @ 278 NONAME ; void HsGui::cleanupIdleUi(void)
	?setWidgetOverTrashbinFeedbackEffect@HsConfiguration@@QAEXW4InstantEffect@HbFeedback@@@Z @ 279 NONAME ; void HsConfiguration::setWidgetOverTrashbinFeedbackEffect(enum HbFeedback::InstantEffect)
	?handleEntryAdded@HsWidgetComponentRegistry@@AAEXABVCaEntry@@ABVQString@@@Z @ 280 NONAME ; void HsWidgetComponentRegistry::handleEntryAdded(class CaEntry const &, class QString const &)
	?setProperty@HsWidgetHost@@AAE_NPBDAAVQMetaProperty@@@Z @ 281 NONAME ; bool HsWidgetHost::setProperty(char const *, class QMetaProperty &)
	?pagePanFinished@HsScene@@IAEXPAVQGestureEvent@@@Z @ 282 NONAME ; void HsScene::pagePanFinished(class QGestureEvent *)
	?minimumWidgetSizeInUnits@HsConfiguration@@QBE?AVQSizeF@@XZ @ 283 NONAME ; class QSizeF HsConfiguration::minimumWidgetSizeInUnits(void) const
	??0HsBackupRestoreObserver@@AAE@PAVQObject@@@Z @ 284 NONAME ; HsBackupRestoreObserver::HsBackupRestoreObserver(class QObject *)
	?setClockWidgetTapFeedbackEffect@HsConfiguration@@QAEXW4InstantEffect@HbFeedback@@@Z @ 285 NONAME ; void HsConfiguration::setClockWidgetTapFeedbackEffect(enum HbFeedback::InstantEffect)
	??1HsPage@@UAE@XZ @ 286 NONAME ; HsPage::~HsPage(void)
	?databaseId@HsWidgetHost@@QBEHXZ @ 287 NONAME ; int HsWidgetHost::databaseId(void) const
	?setInstallationPath@HsWidgetComponentDescriptor@@QAEXABVQString@@@Z @ 288 NONAME ; void HsWidgetComponentDescriptor::setInstallationPath(class QString const &)
	?staticMetaObject@HsHostedWidgetFactory@@2UQMetaObject@@B @ 289 NONAME ; struct QMetaObject const HsHostedWidgetFactory::staticMetaObject
	?setTitle@HsWidgetComponentDescriptor@@QAEXABVQString@@@Z @ 290 NONAME ; void HsWidgetComponentDescriptor::setTitle(class QString const &)
	?qt_metacall@HsPageWallpaper@@UAEHW4Call@QMetaObject@@HPAPAX@Z @ 291 NONAME ; int HsPageWallpaper::qt_metacall(enum QMetaObject::Call, int, void * *)
	?setWidgetSnappingFeedbackEffect@HsConfiguration@@QAEXW4InstantEffect@HbFeedback@@@Z @ 292 NONAME ; void HsConfiguration::setWidgetSnappingFeedbackEffect(enum HbFeedback::InstantEffect)
	?setWidgetDragEffectDuration@HsConfiguration@@QAEXH@Z @ 293 NONAME ; void HsConfiguration::setWidgetDragEffectDuration(int)
	?widgetPresentation@HsDatabase@@QAE_NAAVHsWidgetPresentationData@@@Z @ 294 NONAME ; bool HsDatabase::widgetPresentation(class HsWidgetPresentationData &)
	?pageChangePanDistance@HsConfiguration@@QBEMXZ @ 295 NONAME ; float HsConfiguration::pageChangePanDistance(void) const
	?mInstance@HsContentService@@0PAV1@A @ 296 NONAME ; class HsContentService * HsContentService::mInstance
	??0HsWidgetComponent@@AAE@ABVQString@@PAVQObject@@@Z @ 297 NONAME ; HsWidgetComponent::HsWidgetComponent(class QString const &, class QObject *)
	?startDragEffect@HsWidgetHostVisual@@QAEXXZ @ 298 NONAME ; void HsWidgetHostVisual::startDragEffect(void)
	?insertPage@HsIdleWidget@@QAEXHPAVHsPage@@@Z @ 299 NONAME ; void HsIdleWidget::insertPage(int, class HsPage *)
	?onOrientationChanged@HsPage@@AAEXW4Orientation@Qt@@@Z @ 300 NONAME ; void HsPage::onOrientationChanged(enum Qt::Orientation)
	?adjustedWidgetPosition@HsPage@@QAE?AVQPointF@@ABVQRectF@@@Z @ 301 NONAME ; class QPointF HsPage::adjustedWidgetPosition(class QRectF const &)
	?staticMetaObject@HsWallpaperLoader@@2UQMetaObject@@B @ 302 NONAME ; struct QMetaObject const HsWallpaperLoader::staticMetaObject
	?widgetDragEffectDuration@HsConfiguration@@QBEHXZ @ 303 NONAME ; int HsConfiguration::widgetDragEffectDuration(void) const
	?tr@HsHostedWidgetFactory@@SA?AVQString@@PBD0H@Z @ 304 NONAME ; class QString HsHostedWidgetFactory::tr(char const *, char const *, int)
	?navigateToApplibrary@HsGui@@IAEXXZ @ 305 NONAME ; void HsGui::navigateToApplibrary(void)
	?load@HsConfiguration@@QAE_NXZ @ 306 NONAME ; bool HsConfiguration::load(void)
	?createInstance@HsPage@@SAPAV1@ABVHsPageData@@@Z @ 307 NONAME ; class HsPage * HsPage::createInstance(class HsPageData const &)
	?widgetPreferences@HsDatabase@@QAE_NHAAV?$QHash@VQString@@VQVariant@@@@@Z @ 308 NONAME ; bool HsDatabase::widgetPreferences(int, class QHash<class QString, class QVariant> &)
	?removePage@HsScene@@QAE_NPAVHsPage@@@Z @ 309 NONAME ; bool HsScene::removePage(class HsPage *)
	?hideWidget@HsWidgetHost@@QAEXXZ @ 310 NONAME ; void HsWidgetHost::hideWidget(void)
	?close@HsDatabase@@QAEXXZ @ 311 NONAME ; void HsDatabase::close(void)
	?maximumPageCount@HsConfiguration@@QBEHXZ @ 312 NONAME ; int HsConfiguration::maximumPageCount(void) const
	?action_faulted@HsWidgetHost@@AAEXXZ @ 313 NONAME ; void HsWidgetHost::action_faulted(void)
	?setServiceXml@HsWidgetComponentDescriptor@@QAEXABVQString@@@Z @ 314 NONAME ; void HsWidgetComponentDescriptor::setServiceXml(class QString const &)
	?getStaticMetaObject@HsWidgetHost@@SAABUQMetaObject@@XZ @ 315 NONAME ; struct QMetaObject const & HsWidgetHost::getStaticMetaObject(void)
	??0HsWidgetData@@QAE@ABV0@@Z @ 316 NONAME ; HsWidgetData::HsWidgetData(class HsWidgetData const &)
	?installationPath@HsWidgetComponentDescriptor@@QBE?AVQString@@XZ @ 317 NONAME ; class QString HsWidgetComponentDescriptor::installationPath(void) const
	?showHorizontalSnapLine@HsIdleWidget@@QAEXABVQLineF@@@Z @ 318 NONAME ; void HsIdleWidget::showHorizontalSnapLine(class QLineF const &)
	??_EHsPageVisual@@UAE@I@Z @ 319 NONAME ; HsPageVisual::~HsPageVisual(unsigned int)
	?setWidgetDropEffectDuration@HsConfiguration@@QAEXH@Z @ 320 NONAME ; void HsConfiguration::setWidgetDropEffectDuration(int)
	?pageRemovedAnimationDuration@HsConfiguration@@QBEHXZ @ 321 NONAME ; int HsConfiguration::pageRemovedAnimationDuration(void) const
	?onFinished@HsWidgetHost@@AAEXXZ @ 322 NONAME ; void HsWidgetHost::onFinished(void)
	?rollback@HsDatabase@@QAE_NXZ @ 323 NONAME ; bool HsDatabase::rollback(void)
	?widget@HsDatabase@@QAE_NAAVHsWidgetData@@@Z @ 324 NONAME ; bool HsDatabase::widget(class HsWidgetData &)
	?description@HsWidgetComponentDescriptor@@QBE?AVQString@@XZ @ 325 NONAME ; class QString HsWidgetComponentDescriptor::description(void) const
	?mInstance@HsShortcutService@@0PAV1@A @ 326 NONAME ; class HsShortcutService * HsShortcutService::mInstance
	?pageIndicator@HsIdleWidget@@QBEPAVHsPageIndicator@@XZ @ 327 NONAME ; class HsPageIndicator * HsIdleWidget::pageIndicator(void) const
	?setShortcutWidgetTapFeedbackEffect@HsConfiguration@@QAEXW4InstantEffect@HbFeedback@@@Z @ 328 NONAME ; void HsConfiguration::setShortcutWidgetTapFeedbackEffect(enum HbFeedback::InstantEffect)
	?wallpaperDirectory@HsPageWallpaper@@MBE?AVQString@@XZ @ 329 NONAME ; class QString HsPageWallpaper::wallpaperDirectory(void) const
	?qt_metacast@HsWidgetComponent@@UAEPAXPBD@Z @ 330 NONAME ; void * HsWidgetComponent::qt_metacast(char const *)
	?metaObject@HsWallpaperLoaderThread@@UBEPBUQMetaObject@@XZ @ 331 NONAME ; struct QMetaObject const * HsWallpaperLoaderThread::metaObject(void) const
	?setTargetSize@HsWallpaperLoaderThread@@QAEXABVQSize@@@Z @ 332 NONAME ; void HsWallpaperLoaderThread::setTargetSize(class QSize const &)
	?removePage@HsIdleWidget@@QAEXH@Z @ 333 NONAME ; void HsIdleWidget::removePage(int)
	?tr@HsWallpaper@@SA?AVQString@@PBD0H@Z @ 334 NONAME ; class QString HsWallpaper::tr(char const *, char const *, int)
	?defaultPageId@HsConfiguration@@QBEHXZ @ 335 NONAME ; int HsConfiguration::defaultPageId(void) const
	?setSourcePath@HsWallpaperLoader@@QAEXABVQString@@@Z @ 336 NONAME ; void HsWallpaperLoader::setSourcePath(class QString const &)
	?metaObject@HsGui@@UBEPBUQMetaObject@@XZ @ 337 NONAME ; struct QMetaObject const * HsGui::metaObject(void) const
	?pageChangeAnimationEasingCurve@HsConfiguration@@QBE?AW4Type@QEasingCurve@@XZ @ 338 NONAME ; enum QEasingCurve::Type HsConfiguration::pageChangeAnimationEasingCurve(void) const
	?wallpaper@HsPage@@QBEPAVHsWallpaper@@XZ @ 339 NONAME ; class HsWallpaper * HsPage::wallpaper(void) const
	??0HsPageVisual@@QAE@PAVQGraphicsItem@@@Z @ 340 NONAME ; HsPageVisual::HsPageVisual(class QGraphicsItem *)
	?trUtf8@HsWidgetComponent@@SA?AVQString@@PBD0@Z @ 341 NONAME ; class QString HsWidgetComponent::trUtf8(char const *, char const *)
	?event_backupRestoreStarted@HsBackupRestoreObserver@@IAEXXZ @ 342 NONAME ; void HsBackupRestoreObserver::event_backupRestoreStarted(void)
	?version@HsWidgetComponentDescriptor@@QBE?AVQString@@XZ @ 343 NONAME ; class QString HsWidgetComponentDescriptor::version(void) const
	?action_disconnectComponent@HsWidgetHost@@AAEXXZ @ 344 NONAME ; void HsWidgetHost::action_disconnectComponent(void)
	?scene@HsSceneWallpaper@@QBEPAVHsScene@@XZ @ 345 NONAME ; class HsScene * HsSceneWallpaper::scene(void) const
	?widgetTapStarted@HsScene@@IAEXPAVHsWidgetHost@@@Z @ 346 NONAME ; void HsScene::widgetTapStarted(class HsWidgetHost *)
	?mInstance@HsConfiguration@@0PAV1@A @ 347 NONAME ; class HsConfiguration * HsConfiguration::mInstance
	?newWidgets@HsPage@@QAE?AV?$QList@PAVHsWidgetHost@@@@XZ @ 348 NONAME ; class QList<class HsWidgetHost *> HsPage::newWidgets(void)
	??0HsHostedWidgetFactory@@AAE@PAVQObject@@@Z @ 349 NONAME ; HsHostedWidgetFactory::HsHostedWidgetFactory(class QObject *)
	?trUtf8@HsContentService@@SA?AVQString@@PBD0@Z @ 350 NONAME ; class QString HsContentService::trUtf8(char const *, char const *)
	?emitUpdated@HsWidgetComponent@@AAEXXZ @ 351 NONAME ; void HsWidgetComponent::emitUpdated(void)
	?emitUninstalled@HsWidgetComponent@@AAEXXZ @ 352 NONAME ; void HsWidgetComponent::emitUninstalled(void)
	?tr@HsConfiguration@@SA?AVQString@@PBD0H@Z @ 353 NONAME ; class QString HsConfiguration::tr(char const *, char const *, int)
	??0HsSceneWallpaper@@QAE@PAVHsScene@@PAVQGraphicsItem@@@Z @ 354 NONAME ; HsSceneWallpaper::HsSceneWallpaper(class HsScene *, class QGraphicsItem *)
	?createTargets@HsPageWallpaper@@MAE?AV?$QHash@VQString@@VQVariant@@@@ABVQString@@@Z @ 355 NONAME ; class QHash<class QString, class QVariant> HsPageWallpaper::createTargets(class QString const &)
	?mInstance@HsGui@@0PAV1@A @ 356 NONAME ; class HsGui * HsGui::mInstance
	?pageChangeZoneWidth@HsConfiguration@@QBEMXZ @ 357 NONAME ; float HsConfiguration::pageChangeZoneWidth(void) const
	?qt_metacast@HsGui@@UAEPAXPBD@Z @ 358 NONAME ; void * HsGui::qt_metacast(char const *)
	?setInstance@HsGui@@SAPAV1@PAV1@@Z @ 359 NONAME ; class HsGui * HsGui::setInstance(class HsGui *)
	?tr@HsPageWallpaper@@SA?AVQString@@PBD0@Z @ 360 NONAME ; class QString HsPageWallpaper::tr(char const *, char const *)
	?maximumWidgetSizeInPixels@HsConfiguration@@QBE?AVQSizeF@@XZ @ 361 NONAME ; class QSizeF HsConfiguration::maximumWidgetSizeInPixels(void) const
	??_EHsBackupRestoreObserver@@UAE@I@Z @ 362 NONAME ; HsBackupRestoreObserver::~HsBackupRestoreObserver(unsigned int)
	??1HsScene@@UAE@XZ @ 363 NONAME ; HsScene::~HsScene(void)
	?pageWallpaperLayer@HsIdleWidget@@QBEPAVHbWidget@@XZ @ 364 NONAME ; class HbWidget * HsIdleWidget::pageWallpaperLayer(void) const
	?deleteWidgetPresentation@HsDatabase@@QAE_NHW4Orientation@Qt@@@Z @ 365 NONAME ; bool HsDatabase::deleteWidgetPresentation(int, enum Qt::Orientation)
	?getStaticMetaObject@HsWidgetComponent@@SAABUQMetaObject@@XZ @ 366 NONAME ; struct QMetaObject const & HsWidgetComponent::getStaticMetaObject(void)
	?addExistingWidget@HsPage@@QAE_NPAVHsWidgetHost@@@Z @ 367 NONAME ; bool HsPage::addExistingWidget(class HsWidgetHost *)
	?qt_metacast@HsWidgetComponentRegistry@@UAEPAXPBD@Z @ 368 NONAME ; void * HsWidgetComponentRegistry::qt_metacast(char const *)
	?close@HsWidgetHost@@QAEXXZ @ 369 NONAME ; void HsWidgetHost::close(void)
	?action_remove@HsWidgetHost@@AAEXXZ @ 370 NONAME ; void HsWidgetHost::action_remove(void)
	?trUtf8@HsWallpaper@@SA?AVQString@@PBD0H@Z @ 371 NONAME ; class QString HsWallpaper::trUtf8(char const *, char const *, int)
	?activePage@HsScene@@QBEPAVHsPage@@XZ @ 372 NONAME ; class HsPage * HsScene::activePage(void) const
	?bounceEffect@HsConfiguration@@QBEHXZ @ 373 NONAME ; int HsConfiguration::bounceEffect(void) const
	?setupIdleUi@HsGui@@QAEXXZ @ 374 NONAME ; void HsGui::setupIdleUi(void)
	?pages@HsDatabase@@QAE_NAAV?$QList@VHsPageData@@@@@Z @ 375 NONAME ; bool HsDatabase::pages(class QList<class HsPageData> &)
	?savePresentation@HsWidgetHost@@QAE_NXZ @ 376 NONAME ; bool HsWidgetHost::savePresentation(void)
	?pageChangeAnimation@HsGui@@QAEPAVHsPropertyAnimationWrapper@@XZ @ 377 NONAME ; class HsPropertyAnimationWrapper * HsGui::pageChangeAnimation(void)
	?takeInstance@HsScene@@SAPAV1@XZ @ 378 NONAME ; class HsScene * HsScene::takeInstance(void)
	?rootPath@HsWidgetComponent@@QBE?AVQString@@XZ @ 379 NONAME ; class QString HsWidgetComponent::rootPath(void) const
	?event_startAndHide@HsWidgetHost@@IAEXXZ @ 380 NONAME ; void HsWidgetHost::event_startAndHide(void)
	?qt_metacast@HsWallpaperLoader@@UAEPAXPBD@Z @ 381 NONAME ; void * HsWallpaperLoader::qt_metacast(char const *)
	?startDragEffect@HsWidgetHost@@QAEXXZ @ 382 NONAME ; void HsWidgetHost::startDragEffect(void)
	??1HsDatabase@@UAE@XZ @ 383 NONAME ; HsDatabase::~HsDatabase(void)
	??1HsWidgetComponent@@UAE@XZ @ 384 NONAME ; HsWidgetComponent::~HsWidgetComponent(void)
	?metaObject@HsSceneWallpaper@@UBEPBUQMetaObject@@XZ @ 385 NONAME ; struct QMetaObject const * HsSceneWallpaper::metaObject(void) const
	?createInstance@HsWidgetHost@@SAPAV1@AAVHsWidgetData@@ABV?$QHash@VQString@@VQVariant@@@@@Z @ 386 NONAME ; class HsWidgetHost * HsWidgetHost::createInstance(class HsWidgetData &, class QHash<class QString, class QVariant> const &)
	?setupEffects@HsWidgetHostVisual@@AAEXXZ @ 387 NONAME ; void HsWidgetHostVisual::setupEffects(void)
	?trUtf8@HsGui@@SA?AVQString@@PBD0@Z @ 388 NONAME ; class QString HsGui::trUtf8(char const *, char const *)
	?setPage@HsPageWallpaper@@QAEXPAVHsPage@@@Z @ 389 NONAME ; void HsPageWallpaper::setPage(class HsPage *)
	?shape@HsWidgetHostVisual@@UBE?AVQPainterPath@@XZ @ 390 NONAME ; class QPainterPath HsWidgetHostVisual::shape(void) const
	?deletePage@HsDatabase@@QAE_NH@Z @ 391 NONAME ; bool HsDatabase::deletePage(int)
	?savePresentation@HsWidgetHost@@QAE_NAAVHsWidgetPresentationData@@@Z @ 392 NONAME ; bool HsWidgetHost::savePresentation(class HsWidgetPresentationData &)
	?tr@HsWallpaperLoaderThread@@SA?AVQString@@PBD0H@Z @ 393 NONAME ; class QString HsWallpaperLoaderThread::tr(char const *, char const *, int)
	?resized@HsWidgetHostVisual@@IAEXXZ @ 394 NONAME ; void HsWidgetHostVisual::resized(void)
	?page@HsWidgetHost@@QBEPAVHsPage@@XZ @ 395 NONAME ; class HsPage * HsWidgetHost::page(void) const
	?qt_metacast@HsWallpaper@@UAEPAXPBD@Z @ 396 NONAME ; void * HsWallpaper::qt_metacast(char const *)
	?staticMetaObject@HsWidgetComponent@@2UQMetaObject@@B @ 397 NONAME ; struct QMetaObject const HsWidgetComponent::staticMetaObject
	?setRemovable@HsPage@@QAEX_N@Z @ 398 NONAME ; void HsPage::setRemovable(bool)
	?showVerticalSnapLine@HsIdleWidget@@QAEXABVQLineF@@@Z @ 399 NONAME ; void HsIdleWidget::showVerticalSnapLine(class QLineF const &)
	?staticMetaObject@HsIdleWidget@@2UQMetaObject@@B @ 400 NONAME ; struct QMetaObject const HsIdleWidget::staticMetaObject
	?widgetRemoved@HsContentService@@IAEXABVQString@@ABV?$QHash@VQString@@VQVariant@@@@@Z @ 401 NONAME ; void HsContentService::widgetRemoved(class QString const &, class QHash<class QString, class QVariant> const &)
	?widgetMoveUpdated@HsScene@@IAEXABVQPointF@@PAVHsWidgetHost@@@Z @ 402 NONAME ; void HsScene::widgetMoveUpdated(class QPointF const &, class HsWidgetHost *)
	?qt_metacall@HsWallpaperLoaderThread@@UAEHW4Call@QMetaObject@@HPAPAX@Z @ 403 NONAME ; int HsWallpaperLoaderThread::qt_metacall(enum QMetaObject::Call, int, void * *)
	?loadPresentation@HsWidgetHost@@QAE_NXZ @ 404 NONAME ; bool HsWidgetHost::loadPresentation(void)
	?setupStates@HsWidgetHost@@AAEXXZ @ 405 NONAME ; void HsWidgetHost::setupStates(void)
	?getStaticMetaObject@HsContentService@@SAABUQMetaObject@@XZ @ 406 NONAME ; struct QMetaObject const & HsContentService::getStaticMetaObject(void)
	?wallpaper@HsScene@@QBEPAVHsWallpaper@@XZ @ 407 NONAME ; class HsWallpaper * HsScene::wallpaper(void) const
	?isItemShortcutWidget@HsShortcutService@@QAE_NH@Z @ 408 NONAME ; bool HsShortcutService::isItemShortcutWidget(int)
	?setGeometry@HsPageVisual@@UAEXABVQRectF@@@Z @ 409 NONAME ; void HsPageVisual::setGeometry(class QRectF const &)
	?tr@HsIdleWidget@@SA?AVQString@@PBD0H@Z @ 410 NONAME ; class QString HsIdleWidget::tr(char const *, char const *, int)
	?setDatabaseName@HsDatabase@@QAEXABVQString@@@Z @ 411 NONAME ; void HsDatabase::setDatabaseName(class QString const &)
	?updateWidget@HsDatabase@@QAE_NABVHsWidgetData@@@Z @ 412 NONAME ; bool HsDatabase::updateWidget(class HsWidgetData const &)
	?trUtf8@HsBackupRestoreObserver@@SA?AVQString@@PBD0H@Z @ 413 NONAME ; class QString HsBackupRestoreObserver::trUtf8(char const *, char const *, int)
	?loadPresentation@HsWidgetHost@@QAE_NW4Orientation@Qt@@@Z @ 414 NONAME ; bool HsWidgetHost::loadPresentation(enum Qt::Orientation)
	?createWidgetForPreview@HsContentService@@QAEPAVHsWidgetHost@@ABV?$QHash@VQString@@VQVariant@@@@@Z @ 415 NONAME ; class HsWidgetHost * HsContentService::createWidgetForPreview(class QHash<class QString, class QVariant> const &)
	?available@HsWidgetHost@@IAEXXZ @ 416 NONAME ; void HsWidgetHost::available(void)
	?setPageChangeZoneWidth@HsConfiguration@@QAEXM@Z @ 417 NONAME ; void HsConfiguration::setPageChangeZoneWidth(float)
	?emitAboutToUninstall@HsWidgetComponent@@AAEXXZ @ 418 NONAME ; void HsWidgetComponent::emitAboutToUninstall(void)
	?iconUri@HsWidgetComponentDescriptor@@QBE?AVQString@@XZ @ 419 NONAME ; class QString HsWidgetComponentDescriptor::iconUri(void) const
	?event_faulted@HsWidgetHost@@IAEXXZ @ 420 NONAME ; void HsWidgetHost::event_faulted(void)
	?emitUnavailable@HsWidgetComponent@@AAEXXZ @ 421 NONAME ; void HsWidgetComponent::emitUnavailable(void)
	??1HsWidgetData@@QAE@XZ @ 422 NONAME ; HsWidgetData::~HsWidgetData(void)
	?snapTimeout@HsConfiguration@@QBEHXZ @ 423 NONAME ; int HsConfiguration::snapTimeout(void) const
	?faulted@HsWidgetHost@@IAEXXZ @ 424 NONAME ; void HsWidgetHost::faulted(void)
	??0HsIdleWidget@@QAE@PAVQGraphicsItem@@@Z @ 425 NONAME ; HsIdleWidget::HsIdleWidget(class QGraphicsItem *)
	?event_unload@HsWidgetHost@@IAEXXZ @ 426 NONAME ; void HsWidgetHost::event_unload(void)
	?handleEntryRemoved@HsWidgetComponentRegistry@@AAEXABVCaEntry@@ABVQString@@@Z @ 427 NONAME ; void HsWidgetComponentRegistry::handleEntryRemoved(class CaEntry const &, class QString const &)
	?metaObject@HsWidgetComponentRegistry@@UBEPBUQMetaObject@@XZ @ 428 NONAME ; struct QMetaObject const * HsWidgetComponentRegistry::metaObject(void) const
	?updated@HsWidgetComponent@@IAEXXZ @ 429 NONAME ; void HsWidgetComponent::updated(void)
	?takeInstance@HsConfiguration@@SAPAV1@XZ @ 430 NONAME ; class HsConfiguration * HsConfiguration::takeInstance(void)
	?pageIndex@HsPage@@QAEHXZ @ 431 NONAME ; int HsPage::pageIndex(void)
	?setTargets@HsWallpaperLoader@@QAEXABV?$QHash@VQString@@VQVariant@@@@@Z @ 432 NONAME ; void HsWallpaperLoader::setTargets(class QHash<class QString, class QVariant> const &)
	??1HsIdleWidget@@UAE@XZ @ 433 NONAME ; HsIdleWidget::~HsIdleWidget(void)
	??_EHsHostedWidgetFactory@@UAE@I@Z @ 434 NONAME ; HsHostedWidgetFactory::~HsHostedWidgetFactory(unsigned int)
	??0HsWallpaperLoaderThread@@QAE@PAVQObject@@@Z @ 435 NONAME ; HsWallpaperLoaderThread::HsWallpaperLoaderThread(class QObject *)
	?staticMetaObject@HsGui@@2UQMetaObject@@B @ 436 NONAME ; struct QMetaObject const HsGui::staticMetaObject
	?start@HsWallpaperLoader@@QAEXXZ @ 437 NONAME ; void HsWallpaperLoader::start(void)
	?component@HsWidgetComponentRegistry@@QAEPAVHsWidgetComponent@@ABVQString@@@Z @ 438 NONAME ; class HsWidgetComponent * HsWidgetComponentRegistry::component(class QString const &)
	??_EHsWidgetComponent@@UAE@I@Z @ 439 NONAME ; HsWidgetComponent::~HsWidgetComponent(unsigned int)
	?mInstance@HsScene@@0PAV1@A @ 440 NONAME ; class HsScene * HsScene::mInstance
	?getStaticMetaObject@HsGui@@SAABUQMetaObject@@XZ @ 441 NONAME ; struct QMetaObject const & HsGui::getStaticMetaObject(void)
	?trUtf8@HsSceneWallpaper@@SA?AVQString@@PBD0@Z @ 442 NONAME ; class QString HsSceneWallpaper::trUtf8(char const *, char const *)
	??_EHsWidgetHost@@UAE@I@Z @ 443 NONAME ; HsWidgetHost::~HsWidgetHost(unsigned int)
	?minimumWidgetHeight@HsConfiguration@@QBEMXZ @ 444 NONAME ; float HsConfiguration::minimumWidgetHeight(void) const
	?setVisualModel@HsWidgetHostVisual@@QAEXPAVHsWidgetHost@@@Z @ 445 NONAME ; void HsWidgetHostVisual::setVisualModel(class HsWidgetHost *)
	??0HsPageWallpaper@@QAE@PAVHsPage@@PAVQGraphicsItem@@@Z @ 446 NONAME ; HsPageWallpaper::HsPageWallpaper(class HsPage *, class QGraphicsItem *)
	?onSetPreferences@HsWidgetHost@@AAEXABVQStringList@@@Z @ 447 NONAME ; void HsWidgetHost::onSetPreferences(class QStringList const &)
	?staticMetaObject@HsShortcutService@@2UQMetaObject@@B @ 448 NONAME ; struct QMetaObject const HsShortcutService::staticMetaObject
	??1HsWidgetComponentDescriptor@@QAE@XZ @ 449 NONAME ; HsWidgetComponentDescriptor::~HsWidgetComponentDescriptor(void)
	?showPageIndicator@HsIdleWidget@@QAEXXZ @ 450 NONAME ; void HsIdleWidget::showPageIndicator(void)
	??1HsBackupRestoreObserver@@UAE@XZ @ 451 NONAME ; HsBackupRestoreObserver::~HsBackupRestoreObserver(void)
	?insertPage@HsDatabase@@QAE_NAAVHsPageData@@@Z @ 452 NONAME ; bool HsDatabase::insertPage(class HsPageData &)
	??_EHsWidgetComponentRegistry@@UAE@I@Z @ 453 NONAME ; HsWidgetComponentRegistry::~HsWidgetComponentRegistry(unsigned int)
	?metaObject@HsIdleWidget@@UBEPBUQMetaObject@@XZ @ 454 NONAME ; struct QMetaObject const * HsIdleWidget::metaObject(void) const
	?qt_metacast@HsHostedWidgetFactory@@UAEPAXPBD@Z @ 455 NONAME ; void * HsHostedWidgetFactory::qt_metacast(char const *)
	?setUri@HsWidgetComponentDescriptor@@QAEXABVQString@@@Z @ 456 NONAME ; void HsWidgetComponentDescriptor::setUri(class QString const &)
	??1HsWallpaperLoaderThread@@UAE@XZ @ 457 NONAME ; HsWallpaperLoaderThread::~HsWallpaperLoaderThread(void)
	?staticMetaObject@HsWidgetComponentRegistry@@2UQMetaObject@@B @ 458 NONAME ; struct QMetaObject const HsWidgetComponentRegistry::staticMetaObject
	??1HsWallpaper@@UAE@XZ @ 459 NONAME ; HsWallpaper::~HsWallpaper(void)
	?qt_metacall@HsPage@@UAEHW4Call@QMetaObject@@HPAPAX@Z @ 460 NONAME ; int HsPage::qt_metacall(enum QMetaObject::Call, int, void * *)
	?onWidgetAvailable@HsPage@@AAEXXZ @ 461 NONAME ; void HsPage::onWidgetAvailable(void)
	?qt_metacast@HsPage@@UAEPAXPBD@Z @ 462 NONAME ; void * HsPage::qt_metacast(char const *)
	?result@HsWallpaperLoaderThread@@QBE_NXZ @ 463 NONAME ; bool HsWallpaperLoaderThread::result(void) const
	?setPageIndicatorSpacing@HsConfiguration@@QAEXM@Z @ 464 NONAME ; void HsConfiguration::setPageIndicatorSpacing(float)
	?setSnapLineFadeInDuration@HsConfiguration@@QAEXH@Z @ 465 NONAME ; void HsConfiguration::setSnapLineFadeInDuration(int)
	??1HsGui@@UAE@XZ @ 466 NONAME ; HsGui::~HsGui(void)
	?isValid@HsWidgetComponentDescriptor@@QAE_NXZ @ 467 NONAME ; bool HsWidgetComponentDescriptor::isValid(void)
	?uri@HsWidgetComponentDescriptor@@QBE?AVQString@@XZ @ 468 NONAME ; class QString HsWidgetComponentDescriptor::uri(void) const
	?setOrientation@HsGui@@QAEXW4Orientation@Qt@@@Z @ 469 NONAME ; void HsGui::setOrientation(enum Qt::Orientation)
	?tr@HsWidgetComponentRegistry@@SA?AVQString@@PBD0@Z @ 470 NONAME ; class QString HsWidgetComponentRegistry::tr(char const *, char const *)
	?getStaticMetaObject@HsPage@@SAABUQMetaObject@@XZ @ 471 NONAME ; struct QMetaObject const & HsPage::getStaticMetaObject(void)
	?onWidgetFaulted@HsPage@@AAEXXZ @ 472 NONAME ; void HsPage::onWidgetFaulted(void)
	?page@HsPageWallpaper@@QBEPAVHsPage@@XZ @ 473 NONAME ; class HsPage * HsPageWallpaper::page(void) const
	?qt_metacast@HsBackupRestoreObserver@@UAEPAXPBD@Z @ 474 NONAME ; void * HsBackupRestoreObserver::qt_metacast(char const *)
	?setTargetPath@HsWallpaperLoaderThread@@QAEXABVQString@@@Z @ 475 NONAME ; void HsWallpaperLoaderThread::setTargetPath(class QString const &)
	?setSnapTimeout@HsConfiguration@@QAEXH@Z @ 476 NONAME ; void HsConfiguration::setSnapTimeout(int)
	?createTargets@HsSceneWallpaper@@MAE?AV?$QHash@VQString@@VQVariant@@@@ABVQString@@@Z @ 477 NONAME ; class QHash<class QString, class QVariant> HsSceneWallpaper::createTargets(class QString const &)
	?onWidgetResized@HsPage@@AAEXXZ @ 478 NONAME ; void HsPage::onWidgetResized(void)
	?checkBUR@HsBackupRestoreObserver@@QAE_NXZ @ 479 NONAME ; bool HsBackupRestoreObserver::checkBUR(void)
	?showWidgets@HsPage@@QAEXXZ @ 480 NONAME ; void HsPage::showWidgets(void)
	?startWidget@HsWidgetHost@@QAEX_N@Z @ 481 NONAME ; void HsWidgetHost::startWidget(bool)
	??_EHsShortcutService@@UAE@I@Z @ 482 NONAME ; HsShortcutService::~HsShortcutService(unsigned int)
	?bounceFeedbackEffectDistance@HsConfiguration@@QBEMXZ @ 483 NONAME ; float HsConfiguration::bounceFeedbackEffectDistance(void) const
	?unavailable@HsWidgetHost@@IAEXXZ @ 484 NONAME ; void HsWidgetHost::unavailable(void)
	?qt_metacall@HsDatabase@@UAEHW4Call@QMetaObject@@HPAPAX@Z @ 485 NONAME ; int HsDatabase::qt_metacall(enum QMetaObject::Call, int, void * *)
	?contentRect@HsPage@@QAE?AVQRectF@@W4Orientation@Qt@@@Z @ 486 NONAME ; class QRectF HsPage::contentRect(enum Qt::Orientation)
	?contentGeometry@HsPage@@QAE?AVQRectF@@XZ @ 487 NONAME ; class QRectF HsPage::contentGeometry(void)
	?setHidden@HsWidgetComponentDescriptor@@QAEXABVQString@@@Z @ 488 NONAME ; void HsWidgetComponentDescriptor::setHidden(class QString const &)
	?widgets@HsDatabase@@QAE_NHAAV?$QList@VHsWidgetData@@@@@Z @ 489 NONAME ; bool HsDatabase::widgets(int, class QList<class HsWidgetData> &)
	??_EHsPageWallpaper@@UAE@I@Z @ 490 NONAME ; HsPageWallpaper::~HsPageWallpaper(unsigned int)
	?databaseId@HsPage@@QBEHXZ @ 491 NONAME ; int HsPage::databaseId(void) const
	?tr@HsWallpaperLoader@@SA?AVQString@@PBD0@Z @ 492 NONAME ; class QString HsWallpaperLoader::tr(char const *, char const *)
	?show@HsGui@@QAEXXZ @ 493 NONAME ; void HsGui::show(void)
	??0HsGui@@AAE@PAVQObject@@@Z @ 494 NONAME ; HsGui::HsGui(class QObject *)
	?qt_metacall@HsBackupRestoreObserver@@UAEHW4Call@QMetaObject@@HPAPAX@Z @ 495 NONAME ; int HsBackupRestoreObserver::qt_metacall(enum QMetaObject::Call, int, void * *)
	??_EHsWallpaperLoaderThread@@UAE@I@Z @ 496 NONAME ; HsWallpaperLoaderThread::~HsWallpaperLoaderThread(unsigned int)
	?resolveRootPathAndTranslationFilename@HsWidgetComponent@@AAEXXZ @ 497 NONAME ; void HsWidgetComponent::resolveRootPathAndTranslationFilename(void)
	?maximumWidgetHeight@HsConfiguration@@QBEMXZ @ 498 NONAME ; float HsConfiguration::maximumWidgetHeight(void) const
	?isSnapEnabled@HsConfiguration@@QBE_NXZ @ 499 NONAME ; bool HsConfiguration::isSnapEnabled(void) const
	?backupRestoreCompleted@HsBackupRestoreObserver@@QAEXXZ @ 500 NONAME ; void HsBackupRestoreObserver::backupRestoreCompleted(void)
	?setPageRemovedAnimationDuration@HsConfiguration@@QAEXH@Z @ 501 NONAME ; void HsConfiguration::setPageRemovedAnimationDuration(int)
	?insertWidget@HsDatabase@@QAE_NAAVHsWidgetData@@@Z @ 502 NONAME ; bool HsDatabase::insertWidget(class HsWidgetData &)
	??1HsShortcutService@@UAE@XZ @ 503 NONAME ; HsShortcutService::~HsShortcutService(void)
	?setupTouchArea@HsWidgetHostVisual@@AAEXXZ @ 504 NONAME ; void HsWidgetHostVisual::setupTouchArea(void)
	?setBounceFeedbackEffectDistance@HsConfiguration@@QAEXM@Z @ 505 NONAME ; void HsConfiguration::setBounceFeedbackEffectDistance(float)
	?onEntryChanged@HsWidgetComponentRegistry@@AAEXABVCaEntry@@W4ChangeType@@@Z @ 506 NONAME ; void HsWidgetComponentRegistry::onEntryChanged(class CaEntry const &, enum ChangeType)
	?getPresentation@HsWidgetHost@@QAE_NAAVHsWidgetPresentationData@@@Z @ 507 NONAME ; bool HsWidgetHost::getPresentation(class HsWidgetPresentationData &)
	?getStaticMetaObject@HsSceneWallpaper@@SAABUQMetaObject@@XZ @ 508 NONAME ; struct QMetaObject const & HsSceneWallpaper::getStaticMetaObject(void)
	?tr@HsScene@@SA?AVQString@@PBD0H@Z @ 509 NONAME ; class QString HsScene::tr(char const *, char const *, int)
	?uri@HsWidgetComponent@@QBE?AVQString@@XZ @ 510 NONAME ; class QString HsWidgetComponent::uri(void) const
	?instance@HsContentService@@SAPAV1@XZ @ 511 NONAME ; class HsContentService * HsContentService::instance(void)
	?snapGap@HsConfiguration@@QBEMXZ @ 512 NONAME ; float HsConfiguration::snapGap(void) const
	?savePresentation@HsWidgetHost@@QAE_NW4Orientation@Qt@@@Z @ 513 NONAME ; bool HsWidgetHost::savePresentation(enum Qt::Orientation)
	?setWidgetDropToTrashbinFeedbackEffect@HsConfiguration@@QAEXW4InstantEffect@HbFeedback@@@Z @ 514 NONAME ; void HsConfiguration::setWidgetDropToTrashbinFeedbackEffect(enum HbFeedback::InstantEffect)
	?tr@HsIdleWidget@@SA?AVQString@@PBD0@Z @ 515 NONAME ; class QString HsIdleWidget::tr(char const *, char const *)
	?title@HsWidgetComponentDescriptor@@QBE?AVQString@@XZ @ 516 NONAME ; class QString HsWidgetComponentDescriptor::title(void) const
	?event_hide@HsWidgetHost@@IAEXXZ @ 517 NONAME ; void HsWidgetHost::event_hide(void)
	?databaseId@HsScene@@QBEHXZ @ 518 NONAME ; int HsScene::databaseId(void) const
	?setWidgetDropFeedbackEffect@HsConfiguration@@QAEXW4InstantEffect@HbFeedback@@@Z @ 519 NONAME ; void HsConfiguration::setWidgetDropFeedbackEffect(enum HbFeedback::InstantEffect)
	??1HsWidgetComponentRegistry@@UAE@XZ @ 520 NONAME ; HsWidgetComponentRegistry::~HsWidgetComponentRegistry(void)
	?setDescription@HsWidgetComponentDescriptor@@QAEXABVQString@@@Z @ 521 NONAME ; void HsWidgetComponentDescriptor::setDescription(class QString const &)
	?getStaticMetaObject@HsConfiguration@@SAABUQMetaObject@@XZ @ 522 NONAME ; struct QMetaObject const & HsConfiguration::getStaticMetaObject(void)
	?isRunning@HsWallpaperLoader@@QBE_NXZ @ 523 NONAME ; bool HsWallpaperLoader::isRunning(void) const
	?activePageChanged@HsScene@@IAEXXZ @ 524 NONAME ; void HsScene::activePageChanged(void)
	?staticMetaObject@HsSceneWallpaper@@2UQMetaObject@@B @ 525 NONAME ; struct QMetaObject const HsSceneWallpaper::staticMetaObject
	?uninstalled@HsWidgetComponent@@IAEXXZ @ 526 NONAME ; void HsWidgetComponent::uninstalled(void)
	??1HsHostedWidgetFactory@@UAE@XZ @ 527 NONAME ; HsHostedWidgetFactory::~HsHostedWidgetFactory(void)
	?trUtf8@HsShortcutService@@SA?AVQString@@PBD0@Z @ 528 NONAME ; class QString HsShortcutService::trUtf8(char const *, char const *)
	?setPage@HsWidgetHost@@QAE_NPAVHsPage@@@Z @ 529 NONAME ; bool HsWidgetHost::setPage(class HsPage *)
	?metaObject@HsScene@@UBEPBUQMetaObject@@XZ @ 530 NONAME ; struct QMetaObject const * HsScene::metaObject(void) const
	??_EHsScene@@UAE@I@Z @ 531 NONAME ; HsScene::~HsScene(unsigned int)
	?pageTapAndHoldFinished@HsScene@@IAEXPAVQGestureEvent@@@Z @ 532 NONAME ; void HsScene::pageTapAndHoldFinished(class QGestureEvent *)
	?remove@HsWidgetHost@@QAEXXZ @ 533 NONAME ; void HsWidgetHost::remove(void)
	?run@HsWallpaperLoaderThread@@MAEXXZ @ 534 NONAME ; void HsWallpaperLoaderThread::run(void)
	?maximumWidgetSizeInUnits@HsConfiguration@@QBE?AVQSizeF@@XZ @ 535 NONAME ; class QSizeF HsConfiguration::maximumWidgetSizeInUnits(void) const
	?getStaticMetaObject@HsScene@@SAABUQMetaObject@@XZ @ 536 NONAME ; struct QMetaObject const & HsScene::getStaticMetaObject(void)
	?finished@HsWallpaperLoader@@IAEXXZ @ 537 NONAME ; void HsWallpaperLoader::finished(void)
	?visual@HsPage@@QBEPAVHsPageVisual@@XZ @ 538 NONAME ; class HsPageVisual * HsPage::visual(void) const
	?snapLineFadeOutDuration@HsConfiguration@@QBEHXZ @ 539 NONAME ; int HsConfiguration::snapLineFadeOutDuration(void) const
	?trUtf8@HsPageWallpaper@@SA?AVQString@@PBD0H@Z @ 540 NONAME ; class QString HsPageWallpaper::trUtf8(char const *, char const *, int)
	?setNewSize@HsWidgetHostVisual@@AAEXABVQSizeF@@@Z @ 541 NONAME ; void HsWidgetHostVisual::setNewSize(class QSizeF const &)
	?imageSet@HsWallpaper@@IAEXXZ @ 542 NONAME ; void HsWallpaper::imageSet(void)
	?tr@HsWidgetHostVisual@@SA?AVQString@@PBD0H@Z @ 543 NONAME ; class QString HsWidgetHostVisual::tr(char const *, char const *, int)
	?sceneType@HsConfiguration@@QBE?AW4SceneType@1@XZ @ 544 NONAME ; enum HsConfiguration::SceneType HsConfiguration::sceneType(void) const
	?tr@HsPage@@SA?AVQString@@PBD0H@Z @ 545 NONAME ; class QString HsPage::tr(char const *, char const *, int)
	?setNewPageAddedAnimationDuration@HsConfiguration@@QAEXH@Z @ 546 NONAME ; void HsConfiguration::setNewPageAddedAnimationDuration(int)
	??_EHsGui@@UAE@I@Z @ 547 NONAME ; HsGui::~HsGui(unsigned int)
	?isAvailable@HsWidgetComponent@@QBE_NXZ @ 548 NONAME ; bool HsWidgetComponent::isAvailable(void) const
	?updateWidgetZValues@HsDatabase@@QAE_NABV?$QHash@HM@@W4Orientation@Qt@@@Z @ 549 NONAME ; bool HsDatabase::updateWidgetZValues(class QHash<int, float> const &, enum Qt::Orientation)
	?checkConnection@HsDatabase@@ABE_NXZ @ 550 NONAME ; bool HsDatabase::checkConnection(void) const
	?staticMetaObject@HsConfiguration@@2UQMetaObject@@B @ 551 NONAME ; struct QMetaObject const HsConfiguration::staticMetaObject
	?takeInstance@HsDatabase@@SAPAV1@XZ @ 552 NONAME ; class HsDatabase * HsDatabase::takeInstance(void)
	?tr@HsWallpaper@@SA?AVQString@@PBD0@Z @ 553 NONAME ; class QString HsWallpaper::tr(char const *, char const *)
	?deleteWidgets@HsDatabase@@QAE_NABVQString@@@Z @ 554 NONAME ; bool HsDatabase::deleteWidgets(class QString const &)
	??0HsPageData@@QAE@XZ @ 555 NONAME ; HsPageData::HsPageData(void)
	?tr@HsSceneWallpaper@@SA?AVQString@@PBD0H@Z @ 556 NONAME ; class QString HsSceneWallpaper::tr(char const *, char const *, int)
	?pageIndicatorSpacing@HsConfiguration@@QBEMXZ @ 557 NONAME ; float HsConfiguration::pageIndicatorSpacing(void) const
	?getStaticMetaObject@HsShortcutService@@SAABUQMetaObject@@XZ @ 558 NONAME ; struct QMetaObject const & HsShortcutService::getStaticMetaObject(void)
	?isRemovable@HsPage@@QBE_NXZ @ 559 NONAME ; bool HsPage::isRemovable(void) const
	?setDatabaseId@HsPage@@QAEXH@Z @ 560 NONAME ; void HsPage::setDatabaseId(int)
	?trUtf8@HsIdleWidget@@SA?AVQString@@PBD0@Z @ 561 NONAME ; class QString HsIdleWidget::trUtf8(char const *, char const *)
	?pageChangeAnimationDuration@HsConfiguration@@QBEHXZ @ 562 NONAME ; int HsConfiguration::pageChangeAnimationDuration(void) const
	?staticMetaObject@HsBackupRestoreObserver@@2UQMetaObject@@B @ 563 NONAME ; struct QMetaObject const HsBackupRestoreObserver::staticMetaObject
	?widgetTapAndHoldFinished@HsScene@@IAEXPAVQGestureEvent@@PAVHsWidgetHost@@@Z @ 564 NONAME ; void HsScene::widgetTapAndHoldFinished(class QGestureEvent *, class HsWidgetHost *)
	?metaObject@HsPageWallpaper@@UBEPBUQMetaObject@@XZ @ 565 NONAME ; struct QMetaObject const * HsPageWallpaper::metaObject(void) const
	?tr@HsGui@@SA?AVQString@@PBD0H@Z @ 566 NONAME ; class QString HsGui::tr(char const *, char const *, int)
	?updatePage@HsDatabase@@QAE_NABVHsPageData@@@Z @ 567 NONAME ; bool HsDatabase::updatePage(class HsPageData const &)
	?action_uninitialize@HsWidgetHost@@AAEXXZ @ 568 NONAME ; void HsWidgetHost::action_uninitialize(void)
	??_EHsWallpaperLoader@@UAE@I@Z @ 569 NONAME ; HsWallpaperLoader::~HsWallpaperLoader(unsigned int)
	??_EHsWallpaper@@UAE@I@Z @ 570 NONAME ; HsWallpaper::~HsWallpaper(unsigned int)
	?action_connectComponent@HsWidgetHost@@AAEXXZ @ 571 NONAME ; void HsWidgetHost::action_connectComponent(void)
	?setImage@HsWallpaper@@QAEXABVQString@@@Z @ 572 NONAME ; void HsWallpaper::setImage(class QString const &)
	?setPageChangeAnimationDuration@HsConfiguration@@QAEXH@Z @ 573 NONAME ; void HsConfiguration::setPageChangeAnimationDuration(int)
	??0HsSceneData@@QAE@XZ @ 574 NONAME ; HsSceneData::HsSceneData(void)
	?hasSignal@HsWidgetHost@@AAE_NPBD@Z @ 575 NONAME ; bool HsWidgetHost::hasSignal(char const *)
	?getStaticMetaObject@HsWidgetHostVisual@@SAABUQMetaObject@@XZ @ 576 NONAME ; struct QMetaObject const & HsWidgetHostVisual::getStaticMetaObject(void)
	?getStaticMetaObject@HsWallpaper@@SAABUQMetaObject@@XZ @ 577 NONAME ; struct QMetaObject const & HsWallpaper::getStaticMetaObject(void)
	?trUtf8@HsWallpaper@@SA?AVQString@@PBD0@Z @ 578 NONAME ; class QString HsWallpaper::trUtf8(char const *, char const *)
	??0HsWidgetHost@@QAE@HPAVQObject@@@Z @ 579 NONAME ; HsWidgetHost::HsWidgetHost(int, class QObject *)
	?emitWidgetRemoved@HsContentService@@QAEXABVQString@@ABV?$QHash@VQString@@VQVariant@@@@@Z @ 580 NONAME ; void HsContentService::emitWidgetRemoved(class QString const &, class QHash<class QString, class QVariant> const &)
	?pages@HsScene@@QBE?AV?$QList@PAVHsPage@@@@XZ @ 581 NONAME ; class QList<class HsPage *> HsScene::pages(void) const
	??1HsConfiguration@@UAE@XZ @ 582 NONAME ; HsConfiguration::~HsConfiguration(void)
	?trashBin@HsIdleWidget@@QBEPAVHsTrashBinWidget@@XZ @ 583 NONAME ; class HsTrashBinWidget * HsIdleWidget::trashBin(void) const
	?translationFilename@HsWidgetComponentDescriptor@@QBE?AVQString@@XZ @ 584 NONAME ; class QString HsWidgetComponentDescriptor::translationFilename(void) const
	?trUtf8@HsConfiguration@@SA?AVQString@@PBD0@Z @ 585 NONAME ; class QString HsConfiguration::trUtf8(char const *, char const *)
	?instance@HsScene@@SAPAV1@XZ @ 586 NONAME ; class HsScene * HsScene::instance(void)
	?eventFilter@HsScene@@MAE_NPAVQObject@@PAVQEvent@@@Z @ 587 NONAME ; bool HsScene::eventFilter(class QObject *, class QEvent *)
	?trUtf8@HsPage@@SA?AVQString@@PBD0H@Z @ 588 NONAME ; class QString HsPage::trUtf8(char const *, char const *, int)
	?isDefaultPage@HsPage@@QBE_NXZ @ 589 NONAME ; bool HsPage::isDefaultPage(void) const
	??_EHsDatabase@@UAE@I@Z @ 590 NONAME ; HsDatabase::~HsDatabase(unsigned int)
	?event_startAndShow@HsWidgetHost@@IAEXXZ @ 591 NONAME ; void HsWidgetHost::event_startAndShow(void)
	?layoutRect@HsGui@@QBE?AVQRectF@@XZ @ 592 NONAME ; class QRectF HsGui::layoutRect(void) const
	?trUtf8@HsContentService@@SA?AVQString@@PBD0H@Z @ 593 NONAME ; class QString HsContentService::trUtf8(char const *, char const *, int)
	?setMinimumWidgetHeight@HsConfiguration@@QAEXM@Z @ 594 NONAME ; void HsConfiguration::setMinimumWidgetHeight(float)
	?unavailable@HsWidgetComponent@@IAEXXZ @ 595 NONAME ; void HsWidgetComponent::unavailable(void)
	?isShortcutLabelVisible@HsConfiguration@@QBE_NXZ @ 596 NONAME ; bool HsConfiguration::isShortcutLabelVisible(void) const
	?setPageChangeZoneReverseAnimationDuration@HsConfiguration@@QAEXH@Z @ 597 NONAME ; void HsConfiguration::setPageChangeZoneReverseAnimationDuration(int)
	?getStaticMetaObject@HsIdleWidget@@SAABUQMetaObject@@XZ @ 598 NONAME ; struct QMetaObject const & HsIdleWidget::getStaticMetaObject(void)
	?qt_metacall@HsWidgetHostVisual@@UAEHW4Call@QMetaObject@@HPAPAX@Z @ 599 NONAME ; int HsWidgetHostVisual::qt_metacall(enum QMetaObject::Call, int, void * *)
	?tr@HsDatabase@@SA?AVQString@@PBD0H@Z @ 600 NONAME ; class QString HsDatabase::tr(char const *, char const *, int)
	?instance@HsWidgetComponentRegistry@@SAPAV1@XZ @ 601 NONAME ; class HsWidgetComponentRegistry * HsWidgetComponentRegistry::instance(void)
	?serviceXml@HsWidgetComponentDescriptor@@QBE?AVQString@@XZ @ 602 NONAME ; class QString HsWidgetComponentDescriptor::serviceXml(void) const
	?qt_metacall@HsWallpaperLoader@@UAEHW4Call@QMetaObject@@HPAPAX@Z @ 603 NONAME ; int HsWallpaperLoader::qt_metacall(enum QMetaObject::Call, int, void * *)
	??_EHsSceneWallpaper@@UAE@I@Z @ 604 NONAME ; HsSceneWallpaper::~HsSceneWallpaper(unsigned int)
	?instance@HsDatabase@@SAPAV1@XZ @ 605 NONAME ; class HsDatabase * HsDatabase::instance(void)
	?setTranslationFilename@HsWidgetComponentDescriptor@@QAEXABVQString@@@Z @ 606 NONAME ; void HsWidgetComponentDescriptor::setTranslationFilename(class QString const &)
	?onLoaderFinished@HsWallpaper@@AAEXXZ @ 607 NONAME ; void HsWallpaper::onLoaderFinished(void)
	?qt_metacall@HsIdleWidget@@UAEHW4Call@QMetaObject@@HPAPAX@Z @ 608 NONAME ; int HsIdleWidget::qt_metacall(enum QMetaObject::Call, int, void * *)
	?addWidget@HsContentService@@QAE_NABVQString@@ABV?$QHash@VQString@@VQVariant@@@@ABVQVariant@@@Z @ 609 NONAME ; bool HsContentService::addWidget(class QString const &, class QHash<class QString, class QVariant> const &, class QVariant const &)
	?shortcutWidgetTapFeedbackEffect@HsConfiguration@@QBE?AW4InstantEffect@HbFeedback@@XZ @ 610 NONAME ; enum HbFeedback::InstantEffect HsConfiguration::shortcutWidgetTapFeedbackEffect(void) const
	?widgetMoveFinished@HsScene@@IAEXABVQPointF@@PAVHsWidgetHost@@@Z @ 611 NONAME ; void HsScene::widgetMoveFinished(class QPointF const &, class HsWidgetHost *)
	?setInstance@HsScene@@SAXPAV1@@Z @ 612 NONAME ; void HsScene::setInstance(class HsScene *)
	?tr@HsPageVisual@@SA?AVQString@@PBD0H@Z @ 613 NONAME ; class QString HsPageVisual::tr(char const *, char const *, int)
	??_EHsContentService@@UAE@I@Z @ 614 NONAME ; HsContentService::~HsContentService(unsigned int)
	?trUtf8@HsDatabase@@SA?AVQString@@PBD0H@Z @ 615 NONAME ; class QString HsDatabase::trUtf8(char const *, char const *, int)
	?action_hide@HsWidgetHost@@AAEXXZ @ 616 NONAME ; void HsWidgetHost::action_hide(void)
	?addNewWidget@HsPage@@QAE_NPAVHsWidgetHost@@ABVQPointF@@@Z @ 617 NONAME ; bool HsPage::addNewWidget(class HsWidgetHost *, class QPointF const &)
	?removePresentation@HsWidgetHost@@QAE_NW4Orientation@Qt@@@Z @ 618 NONAME ; bool HsWidgetHost::removePresentation(enum Qt::Orientation)
	?staticMetaObject@HsContentService@@2UQMetaObject@@B @ 619 NONAME ; struct QMetaObject const HsContentService::staticMetaObject
	?tr@HsWidgetHost@@SA?AVQString@@PBD0H@Z @ 620 NONAME ; class QString HsWidgetHost::tr(char const *, char const *, int)
	?setWidgetRepositionFeedbackEffect@HsConfiguration@@QAEXW4InstantEffect@HbFeedback@@@Z @ 621 NONAME ; void HsConfiguration::setWidgetRepositionFeedbackEffect(enum HbFeedback::InstantEffect)
	?gestureEvent@HsWidgetHostVisual@@MAEXPAVQGestureEvent@@@Z @ 622 NONAME ; void HsWidgetHostVisual::gestureEvent(class QGestureEvent *)
	?metaObject@HsBackupRestoreObserver@@UBEPBUQMetaObject@@XZ @ 623 NONAME ; struct QMetaObject const * HsBackupRestoreObserver::metaObject(void) const
	?instance@HsGui@@SAPAV1@XZ @ 624 NONAME ; class HsGui * HsGui::instance(void)
	?getStaticMetaObject@HsHostedWidgetFactory@@SAABUQMetaObject@@XZ @ 625 NONAME ; struct QMetaObject const & HsHostedWidgetFactory::getStaticMetaObject(void)
	?qt_metacall@HsScene@@UAEHW4Call@QMetaObject@@HPAPAX@Z @ 626 NONAME ; int HsScene::qt_metacall(enum QMetaObject::Call, int, void * *)
	?setExistingImage@HsWallpaper@@IAE_NXZ @ 627 NONAME ; bool HsWallpaper::setExistingImage(void)
	?setPageChangeFeedbackEffect@HsConfiguration@@QAEXW4InstantEffect@HbFeedback@@@Z @ 628 NONAME ; void HsConfiguration::setPageChangeFeedbackEffect(enum HbFeedback::InstantEffect)
	?trUtf8@HsHostedWidgetFactory@@SA?AVQString@@PBD0H@Z @ 629 NONAME ; class QString HsHostedWidgetFactory::trUtf8(char const *, char const *, int)
	?trUtf8@HsConfiguration@@SA?AVQString@@PBD0H@Z @ 630 NONAME ; class QString HsConfiguration::trUtf8(char const *, char const *, int)
	?minimumWidgetSizeInPixels@HsConfiguration@@QBE?AVQSizeF@@XZ @ 631 NONAME ; class QSizeF HsConfiguration::minimumWidgetSizeInPixels(void) const
	?event_finished@HsWidgetHost@@IAEXXZ @ 632 NONAME ; void HsWidgetHost::event_finished(void)
	?sourcePath@HsWallpaperLoaderThread@@QBE?AVQString@@XZ @ 633 NONAME ; class QString HsWallpaperLoaderThread::sourcePath(void) const
	?widgets@HsPage@@QBE?AV?$QList@PAVHsWidgetHost@@@@XZ @ 634 NONAME ; class QList<class HsWidgetHost *> HsPage::widgets(void) const
	?setPageMargin@HsConfiguration@@QAEXM@Z @ 635 NONAME ; void HsConfiguration::setPageMargin(float)
	?parallaxFactor@HsIdleWidget@@QBEMXZ @ 636 NONAME ; float HsIdleWidget::parallaxFactor(void) const
	?setOnline@HsWidgetHost@@QAEX_N@Z @ 637 NONAME ; void HsWidgetHost::setOnline(bool)
	?setPreferencesToWidget@HsWidgetHost@@AAE_NXZ @ 638 NONAME ; bool HsWidgetHost::setPreferencesToWidget(void)
	?setWidgetPickFeedbackEffect@HsConfiguration@@QAEXW4InstantEffect@HbFeedback@@@Z @ 639 NONAME ; void HsConfiguration::setWidgetPickFeedbackEffect(enum HbFeedback::InstantEffect)
	?getStaticMetaObject@HsPageWallpaper@@SAABUQMetaObject@@XZ @ 640 NONAME ; struct QMetaObject const & HsPageWallpaper::getStaticMetaObject(void)
	??0HsWidgetHostVisual@@QAE@PAVQGraphicsItem@@@Z @ 641 NONAME ; HsWidgetHostVisual::HsWidgetHostVisual(class QGraphicsItem *)
	?trUtf8@HsIdleWidget@@SA?AVQString@@PBD0H@Z @ 642 NONAME ; class QString HsIdleWidget::trUtf8(char const *, char const *, int)
	??0HsContentService@@QAE@PAVQObject@@@Z @ 643 NONAME ; HsContentService::HsContentService(class QObject *)
	?trUtf8@HsWidgetComponentRegistry@@SA?AVQString@@PBD0H@Z @ 644 NONAME ; class QString HsWidgetComponentRegistry::trUtf8(char const *, char const *, int)
	?targetPath@HsWallpaperLoaderThread@@QBE?AVQString@@XZ @ 645 NONAME ; class QString HsWallpaperLoaderThread::targetPath(void) const
	?staticMetaObject@HsWallpaper@@2UQMetaObject@@B @ 646 NONAME ; struct QMetaObject const HsWallpaper::staticMetaObject
	?trUtf8@HsGui@@SA?AVQString@@PBD0H@Z @ 647 NONAME ; class QString HsGui::trUtf8(char const *, char const *, int)
	?metaObject@HsPageVisual@@UBEPBUQMetaObject@@XZ @ 648 NONAME ; struct QMetaObject const * HsPageVisual::metaObject(void) const
	?tr@HsWidgetComponent@@SA?AVQString@@PBD0@Z @ 649 NONAME ; class QString HsWidgetComponent::tr(char const *, char const *)
	?tr@HsHostedWidgetFactory@@SA?AVQString@@PBD0@Z @ 650 NONAME ; class QString HsHostedWidgetFactory::tr(char const *, char const *)
	?setBounceEffect@HsConfiguration@@QAEXH@Z @ 651 NONAME ; void HsConfiguration::setBounceEffect(int)
	??0HsPage@@QAE@PAVQObject@@@Z @ 652 NONAME ; HsPage::HsPage(class QObject *)
	?qt_metacast@HsDatabase@@UAEPAXPBD@Z @ 653 NONAME ; void * HsDatabase::qt_metacast(char const *)
	?registerService@HsWidgetComponentRegistry@@AAEXABVCaEntry@@ABVQString@@_N@Z @ 654 NONAME ; void HsWidgetComponentRegistry::registerService(class CaEntry const &, class QString const &, bool)
	?trUtf8@HsBackupRestoreObserver@@SA?AVQString@@PBD0@Z @ 655 NONAME ; class QString HsBackupRestoreObserver::trUtf8(char const *, char const *)
	?metaObject@HsWidgetHost@@UBEPBUQMetaObject@@XZ @ 656 NONAME ; struct QMetaObject const * HsWidgetHost::metaObject(void) const
	?qt_metacast@HsConfiguration@@UAEPAXPBD@Z @ 657 NONAME ; void * HsConfiguration::qt_metacast(char const *)

