EXPORTS
	?ExecuteL@CHnServiceHandler@@QAEHPAVMLiwNotifyCallback@@H@Z @ 1 NONAME ; int CHnServiceHandler::ExecuteL(class MLiwNotifyCallback *, int)
	?GetStringL@HnLiwUtils@@SAHABVCLiwGenericParamList@@ABVTDesC8@@AAVRBuf8@@@Z @ 2 NONAME ; int HnLiwUtils::GetStringL(class CLiwGenericParamList const &, class TDesC8 const &, class RBuf8 &)
	?NewLC@CHnRepositoryManager@@SAPAV1@XZ @ 3 NONAME ; class CHnRepositoryManager * CHnRepositoryManager::NewLC(void)
	?ToGenericParamListL@CHnMdBaseKey@@UBEXAAVCLiwGenericParamList@@@Z @ 4 NONAME ; void CHnMdBaseKey::ToGenericParamListL(class CLiwGenericParamList &) const
	?NumToStr8LC@HnConvUtils@@SAPAVHBufC8@@ABH@Z @ 5 NONAME ; class HBufC8 * HnConvUtils::NumToStr8LC(int const &)
	?StoreSuiteWidgetTypeL@CHnRepositoryManager@@QAEHABVTDesC16@@W4THnSuiteWidgetType@@@Z @ 6 NONAME ; int CHnRepositoryManager::StoreSuiteWidgetTypeL(class TDesC16 const &, enum THnSuiteWidgetType)
	?StrToStr8L@HnConvUtils@@SAPAVHBufC8@@ABVTDesC16@@@Z @ 7 NONAME ; class HBufC8 * HnConvUtils::StrToStr8L(class TDesC16 const &)
	?NewL@CHnRepositoryManager@@SAPAV1@XZ @ 8 NONAME ; class CHnRepositoryManager * CHnRepositoryManager::NewL(void)
	?VariantToStringL@HnLiwUtils@@SAHAAVTLiwVariant@@AAVRBuf16@@@Z @ 9 NONAME ; int HnLiwUtils::VariantToStringL(class TLiwVariant &, class RBuf16 &)
	?SetGenericParamListL@HnLiwUtils@@SAXABV?$RPointerArray@VCHnMdBaseKey@@@@AAVCLiwGenericParamList@@@Z @ 10 NONAME ; void HnLiwUtils::SetGenericParamListL(class RPointerArray<class CHnMdBaseKey> const &, class CLiwGenericParamList &)
	?GetStringL@HnLiwUtils@@SAHABVCLiwGenericParamList@@ABVTDesC8@@HAAVRBuf8@@@Z @ 11 NONAME ; int HnLiwUtils::GetStringL(class CLiwGenericParamList const &, class TDesC8 const &, int, class RBuf8 &)
	?CreateL@HnMdKeyFactory@@SAPAVCHnMdBaseKey@@ABVTDesC8@@00@Z @ 12 NONAME ; class CHnMdBaseKey * HnMdKeyFactory::CreateL(class TDesC8 const &, class TDesC8 const &, class TDesC8 const &)
	?CreateL@HnMdKeyFactory@@SAPAVCHnMdBaseKey@@VTXmlEngElement@@@Z @ 13 NONAME ; class CHnMdBaseKey * HnMdKeyFactory::CreateL(class TXmlEngElement)
	?Str8ToStrLC@HnConvUtils@@SAPAVHBufC16@@ABVTDesC8@@@Z @ 14 NONAME ; class HBufC16 * HnConvUtils::Str8ToStrLC(class TDesC8 const &)
	?GetIterableItemCountL@HnLiwUtils@@SAHAAVCLiwIterable@@@Z @ 15 NONAME ; int HnLiwUtils::GetIterableItemCountL(class CLiwIterable &)
	?ReadSuiteWidgetTypeL@CHnRepositoryManager@@QAEHABVTDesC16@@AAW4THnSuiteWidgetType@@@Z @ 16 NONAME ; int CHnRepositoryManager::ReadSuiteWidgetTypeL(class TDesC16 const &, enum THnSuiteWidgetType &)
	?StrToInt@HnConvUtils@@SAHABVTDesC16@@AAJ@Z @ 17 NONAME ; int HnConvUtils::StrToInt(class TDesC16 const &, long &)
	??1CHnServiceHandler@@UAE@XZ @ 18 NONAME ; CHnServiceHandler::~CHnServiceHandler(void)
	?NewLC@CHnServiceHandler@@SAPAV1@ABVTDesC8@@00W4TServiceMode@@PAVCLiwGenericParamList@@2@Z @ 19 NONAME ; class CHnServiceHandler * CHnServiceHandler::NewLC(class TDesC8 const &, class TDesC8 const &, class TDesC8 const &, enum TServiceMode, class CLiwGenericParamList *, class CLiwGenericParamList *)
	?Str8ToUint@HnConvUtils@@SAHABVTDesC8@@AAI@Z @ 20 NONAME ; int HnConvUtils::Str8ToUint(class TDesC8 const &, unsigned int &)
	?Str8ToInt@HnConvUtils@@SAHABVTDesC8@@AAJ@Z @ 21 NONAME ; int HnConvUtils::Str8ToInt(class TDesC8 const &, long &)
	?NewL@CHnServiceHandler@@SAPAV1@ABVTDesC8@@00W4TServiceMode@@PAVCLiwGenericParamList@@2@Z @ 22 NONAME ; class CHnServiceHandler * CHnServiceHandler::NewL(class TDesC8 const &, class TDesC8 const &, class TDesC8 const &, enum TServiceMode, class CLiwGenericParamList *, class CLiwGenericParamList *)
	?AddSubKeyL@CHnMdBaseKey@@QAEXPAV1@@Z @ 23 NONAME ; void CHnMdBaseKey::AddSubKeyL(class CHnMdBaseKey *)
	?Str8ToInt@HnConvUtils@@SAHABVTDesC8@@AAH@Z @ 24 NONAME ; int HnConvUtils::Str8ToInt(class TDesC8 const &, int &)
	?ToVariantL@CHnMdBaseKey@@UBEXAAVTLiwVariant@@@Z @ 25 NONAME ; void CHnMdBaseKey::ToVariantL(class TLiwVariant &) const
	?Str8ToStr@HnConvUtils@@SAPAVHBufC16@@ABVTDesC8@@@Z @ 26 NONAME ; class HBufC16 * HnConvUtils::Str8ToStr(class TDesC8 const &)
	?HandleNotifyL@CHnServiceHandler@@EAEHHHAAVCLiwGenericParamList@@ABV2@@Z @ 27 NONAME ; int CHnServiceHandler::HandleNotifyL(int, int, class CLiwGenericParamList &, class CLiwGenericParamList const &)
	?DeleteSuiteRelatedL@CHnRepositoryManager@@QAEHABVTDesC16@@@Z @ 28 NONAME ; int CHnRepositoryManager::DeleteSuiteRelatedL(class TDesC16 const &)
	?GetInt64L@HnLiwUtils@@SAHABVCLiwGenericParamList@@ABVTDesC8@@HAA_J@Z @ 29 NONAME ; int HnLiwUtils::GetInt64L(class CLiwGenericParamList const &, class TDesC8 const &, int, long long &)
	??1CHnRepositoryManager@@UAE@XZ @ 30 NONAME ; CHnRepositoryManager::~CHnRepositoryManager(void)
	?CreateL@HnMdKeyFactory@@SAPAVCHnMdBaseKey@@ABVTDesC8@@0ABVTDesC16@@@Z @ 31 NONAME ; class CHnMdBaseKey * HnMdKeyFactory::CreateL(class TDesC8 const &, class TDesC8 const &, class TDesC16 const &)
	?GetVariantL@HnLiwUtils@@SAHABVCLiwGenericParamList@@ABVTDesC8@@HAAVTLiwVariant@@@Z @ 32 NONAME ; int HnLiwUtils::GetVariantL(class CLiwGenericParamList const &, class TDesC8 const &, int, class TLiwVariant &)
	?GetStringL@HnLiwUtils@@SAHABVCLiwGenericParamList@@ABVTDesC8@@AAVRBuf16@@@Z @ 33 NONAME ; int HnLiwUtils::GetStringL(class CLiwGenericParamList const &, class TDesC8 const &, class RBuf16 &)
	?GetStringL@HnLiwUtils@@SAHABVCLiwGenericParamList@@ABVTDesC8@@HAAVRBuf16@@@Z @ 34 NONAME ; int HnLiwUtils::GetStringL(class CLiwGenericParamList const &, class TDesC8 const &, int, class RBuf16 &)
	?ExecuteL@CHnServiceHandler@@QAEHAAVCLiwGenericParamList@@AAVTRequestStatus@@@Z @ 35 NONAME ; int CHnServiceHandler::ExecuteL(class CLiwGenericParamList &, class TRequestStatus &)
	?VariantToStringL@HnLiwUtils@@SAHAAVTLiwVariant@@AAVRBuf8@@@Z @ 36 NONAME ; int HnLiwUtils::VariantToStringL(class TLiwVariant &, class RBuf8 &)
	?StrToInt@HnConvUtils@@SAHABVTDesC16@@AAH@Z @ 37 NONAME ; int HnConvUtils::StrToInt(class TDesC16 const &, int &)
	?CreateLC@HnMdKeyFactory@@SAPAVCHnMdBaseKey@@VTXmlEngElement@@@Z @ 38 NONAME ; class CHnMdBaseKey * HnMdKeyFactory::CreateLC(class TXmlEngElement)
	?StrToStr8LC@HnConvUtils@@SAPAVHBufC8@@ABVTDesC16@@@Z @ 39 NONAME ; class HBufC8 * HnConvUtils::StrToStr8LC(class TDesC16 const &)
	?EvaluateLC@CHnMdBaseKey@@QAEPAV1@ABVCLiwGenericParamList@@H@Z @ 40 NONAME ; class CHnMdBaseKey * CHnMdBaseKey::EvaluateLC(class CLiwGenericParamList const &, int)
	?GetVariantL@HnLiwUtils@@SAHABVCLiwGenericParamList@@ABVTDesC8@@AAVTLiwVariant@@@Z @ 41 NONAME ; int HnLiwUtils::GetVariantL(class CLiwGenericParamList const &, class TDesC8 const &, class TLiwVariant &)

