EXPORTS
	?SetSuiteNameL@CHnFilter@@QAEXABVTDesC16@@@Z @ 1 NONAME ; void CHnFilter::SetSuiteNameL(class TDesC16 const &)
	?Id@CHnMdEvent@@QBEHXZ @ 2 NONAME ; int CHnMdEvent::Id(void) const
	?NewLC@CHnItemId@@SAPAV1@ABVTDesC16@@0@Z @ 3 NONAME ; class CHnItemId * CHnItemId::NewLC(class TDesC16 const &, class TDesC16 const &)
	?GetAlternativeWidgetNumber@CHnMdSuite@@QAEHXZ @ 4 NONAME ; int CHnMdSuite::GetAlternativeWidgetNumber(void)
	?GetSuiteParameters@CHnMdSuite@@QAEAAVCLiwGenericParamList@@XZ @ 5 NONAME ; class CLiwGenericParamList & CHnMdSuite::GetSuiteParameters(void)
	?ReloadLocalizationL@CHnMdModel@@QAEXXZ @ 6 NONAME ; void CHnMdModel::ReloadLocalizationL(void)
	?QueueForeground@CHnMdModel@@QAEXW4TForegroundGainTriggeringEvent@1@@Z @ 7 NONAME ; void CHnMdModel::QueueForeground(enum CHnMdModel::TForegroundGainTriggeringEvent)
	?ReadFileL@HnUtils@@SAPAVHBufC8@@ABVTDesC16@@@Z @ 8 NONAME ; class HBufC8 * HnUtils::ReadFileL(class TDesC16 const &)
	?GetModelL@CHnXmlModelProvider@@QAEHABVTDesC16@@AAVRXmlEngDocument@@@Z @ 9 NONAME ; int CHnXmlModelProvider::GetModelL(class TDesC16 const &, class RXmlEngDocument &)
	?GetLastSuite@CHnMdModel@@QAEPAVCHnMdSuite@@XZ @ 10 NONAME ; class CHnMdSuite * CHnMdModel::GetLastSuite(void)
	?GetColumnTextColumnCount@HnUtils@@SAHABVTDesC8@@VTChar@@@Z @ 11 NONAME ; int HnUtils::GetColumnTextColumnCount(class TDesC8 const &, class TChar)
	?SetSuiteParametersL@CHnMdSuite@@QAEXAAVCLiwGenericParamList@@@Z @ 12 NONAME ; void CHnMdSuite::SetSuiteParametersL(class CLiwGenericParamList &)
	?NewLC@CHnXmlModelProvider@@SAPAV1@XZ @ 13 NONAME ; class CHnXmlModelProvider * CHnXmlModelProvider::NewLC(void)
	?NewLC@CHnMdModel@@SAPAV1@PAVMHnMdModelEventObserver@@PAVCHnSuiteModelContainer@@@Z @ 14 NONAME ; class CHnMdModel * CHnMdModel::NewLC(class MHnMdModelEventObserver *, class CHnSuiteModelContainer *)
	?IsForegroundQueued@CHnMdModel@@QBEHXZ @ 15 NONAME ; int CHnMdModel::IsForegroundQueued(void) const
	?NewL@CHnXmlModelProvider@@SAPAV1@XZ @ 16 NONAME ; class CHnXmlModelProvider * CHnXmlModelProvider::NewL(void)
	?SetModeL@CHnMdModel@@QAEXW4TMdMode@@@Z @ 17 NONAME ; void CHnMdModel::SetModeL(enum TMdMode)
	?AppendItemIdL@CHnFilter@@QAEXPAVCHnItemId@@@Z @ 18 NONAME ; void CHnFilter::AppendItemIdL(class CHnItemId *)
	?HandleSisInstallationEventL@CHnMdModel@@QAEXPAVCHnSuiteModelContainer@@@Z @ 19 NONAME ; void CHnMdModel::HandleSisInstallationEventL(class CHnSuiteModelContainer *)
	?ReadFileLC@HnUtils@@SAPAVHBufC8@@ABVTDesC16@@@Z @ 20 NONAME ; class HBufC8 * HnUtils::ReadFileLC(class TDesC16 const &)
	?LoadSuiteL@CHnMdModel@@QAEHABVTDesC16@@PAVCLiwGenericParamList@@@Z @ 21 NONAME ; int CHnMdModel::LoadSuiteL(class TDesC16 const &, class CLiwGenericParamList *)
	?SuiteModelExistsL@CHnMdModel@@QAEHABVTDesC8@@@Z @ 22 NONAME ; int CHnMdModel::SuiteModelExistsL(class TDesC8 const &)
	?HandleBackEventL@CHnMdModel@@QAEHPAVCHnSuiteModelContainer@@ABVTDesC16@@H@Z @ 23 NONAME ; int CHnMdModel::HandleBackEventL(class CHnSuiteModelContainer *, class TDesC16 const &, int)
	?SuiteName@CHnItemId@@QBEABVTDesC16@@XZ @ 24 NONAME ; class TDesC16 const & CHnItemId::SuiteName(void) const
	?Template@CHnMdItem@@QAEAAVTDesC8@@XZ @ 25 NONAME ; class TDesC8 & CHnMdItem::Template(void)
	?SetAttributeL@HnUtils@@SAXABVTXmlEngElement@@AAVRBuf8@@@Z @ 26 NONAME ; void HnUtils::SetAttributeL(class TXmlEngElement const &, class RBuf8 &)
	?ReleaseLocalization@CHnMdModel@@QAEXXZ @ 27 NONAME ; void CHnMdModel::ReleaseLocalization(void)
	?DeleteLastSuite@CHnMdModel@@QAEXXZ @ 28 NONAME ; void CHnMdModel::DeleteLastSuite(void)
	?NewLC@CHnFilter@@SAPAV1@XZ @ 29 NONAME ; class CHnFilter * CHnFilter::NewLC(void)
	?EvaluateL@CHnMdModel@@QAEXXZ @ 30 NONAME ; void CHnMdModel::EvaluateL(void)
	?SetAttributeL@HnUtils@@SAXABVTXmlEngElement@@ABVTDesC8@@AAVRBuf8@@@Z @ 31 NONAME ; void HnUtils::SetAttributeL(class TXmlEngElement const &, class TDesC8 const &, class RBuf8 &)
	?Compare@CHnItemId@@QBEHABV1@@Z @ 32 NONAME ; int CHnItemId::Compare(class CHnItemId const &) const
	?LocateFileLC@HnUtils@@SAPAVHBufC16@@ABVTDesC16@@@Z @ 33 NONAME ; class HBufC16 * HnUtils::LocateFileLC(class TDesC16 const &)
	?Uid@CHnMdItem@@QAEAAVTDesC8@@XZ @ 34 NONAME ; class TDesC8 & CHnMdItem::Uid(void)
	?SetEvaluateSuiteL@CHnFilter@@QAEXH@Z @ 35 NONAME ; void CHnFilter::SetEvaluateSuiteL(int)
	?GetColumnTextLC@HnUtils@@SAPAVHBufC8@@HABVTDesC8@@VTChar@@@Z @ 36 NONAME ; class HBufC8 * HnUtils::GetColumnTextLC(int, class TDesC8 const &, class TChar)
	?LocateNearestLanguageFileLC@HnUtils@@SAPAVHBufC16@@ABVTDesC16@@@Z @ 37 NONAME ; class HBufC16 * HnUtils::LocateNearestLanguageFileLC(class TDesC16 const &)
	?SetSuiteId@CHnFilter@@QAEXH@Z @ 38 NONAME ; void CHnFilter::SetSuiteId(int)
	?NewL@CHnFilter@@SAPAV1@XZ @ 39 NONAME ; class CHnFilter * CHnFilter::NewL(void)
	?SuiteName@CHnMdSuite@@QAEABVTDesC16@@XZ @ 40 NONAME ; class TDesC16 const & CHnMdSuite::SuiteName(void)
	?UpdateL@CHnItemId@@QAEXABV1@@Z @ 41 NONAME ; void CHnItemId::UpdateL(class CHnItemId const &)
	?Type@CHnMdItem@@QAEAAVTDesC8@@XZ @ 42 NONAME ; class TDesC8 & CHnMdItem::Type(void)
	?ReloadModelL@CHnXmlModelProvider@@QAEXXZ @ 43 NONAME ; void CHnXmlModelProvider::ReloadModelL(void)
	??1CHnXmlModelProvider@@UAE@XZ @ 44 NONAME ; CHnXmlModelProvider::~CHnXmlModelProvider(void)
	?NewL@CHnItemId@@SAPAV1@ABVTDesC16@@0@Z @ 45 NONAME ; class CHnItemId * CHnItemId::NewL(class TDesC16 const &, class TDesC16 const &)
	?Id@CHnItemId@@QBEABVTDesC16@@XZ @ 46 NONAME ; class TDesC16 const & CHnItemId::Id(void) const
	?EvaluateL@CHnMdModel@@QAEXAAVCHnFilter@@@Z @ 47 NONAME ; void CHnMdModel::EvaluateL(class CHnFilter &)
	?NewL@CHnMdModel@@SAPAV1@PAVMHnMdModelEventObserver@@PAVCHnSuiteModelContainer@@@Z @ 48 NONAME ; class CHnMdModel * CHnMdModel::NewL(class MHnMdModelEventObserver *, class CHnSuiteModelContainer *)
	?GetSuiteParameters@CHnMdModel@@QAEAAVCLiwGenericParamList@@H@Z @ 49 NONAME ; class CLiwGenericParamList & CHnMdModel::GetSuiteParameters(int)
	?IgnoreEvaluations@CHnMdModel@@QAEXH@Z @ 50 NONAME ; void CHnMdModel::IgnoreEvaluations(int)
	?GetCurrentUriL@CHnMdModel@@QAEXAAVTDes16@@@Z @ 51 NONAME ; void CHnMdModel::GetCurrentUriL(class TDes16 &)

