EXPORTS
	?GetMiddleSoftKey@CHnItemModel@@QAEPAVCHnButtonModel@@XZ @ 1 NONAME ; class CHnButtonModel * CHnItemModel::GetMiddleSoftKey(void)
	?GetMatchingItemModelL@CHnSuiteModel@@QAEPAVCHnItemModel@@_JAAH@Z @ 2 NONAME ; class CHnItemModel * CHnSuiteModel::GetMatchingItemModelL(long long, int &)
	?NewLC@CHnAttrImgProvSvgImage@@SAPAV1@ABVTDesC16@@@Z @ 3 NONAME ; class CHnAttrImgProvSvgImage * CHnAttrImgProvSvgImage::NewLC(class TDesC16 const &)
	?GetRootSuite@CHnSuitesStack@@QAEPAVCHnSuiteModel@@XZ @ 4 NONAME ; class CHnSuiteModel * CHnSuitesStack::GetRootSuite(void)
	??1CHnButtonModel@@UAE@XZ @ 5 NONAME ; CHnButtonModel::~CHnButtonModel(void)
	?Value@CHnAttributeBase@@UAEABVTDesC8@@XZ @ 6 NONAME ; class TDesC8 const & CHnAttributeBase::Value(void)
	?SetDimmed@CHnButtonModel@@QAEXH@Z @ 7 NONAME ; void CHnButtonModel::SetDimmed(int)
	?GetModelItemCount@CHnItemsOrder@@QAEHXZ @ 8 NONAME ; int CHnItemsOrder::GetModelItemCount(void)
	?SetEmptyTextL@CHnSuiteModel@@QAEXABVTDesC16@@@Z @ 9 NONAME ; void CHnSuiteModel::SetEmptyTextL(class TDesC16 const &)
	?IsActive@CHnSuiteModel@@QAEHXZ @ 10 NONAME ; int CHnSuiteModel::IsActive(void)
	?Get@CHnSuitesStack@@QAEPAVCHnSuiteModel@@H@Z @ 11 NONAME ; class CHnSuiteModel * CHnSuitesStack::Get(int)
	?SetActiveL@CHnSuiteModel@@QAEXH@Z @ 12 NONAME ; void CHnSuiteModel::SetActiveL(int)
	?IsItemMoveLocked@CHnSuiteModel@@QAEHH@Z @ 13 NONAME ; int CHnSuiteModel::IsItemMoveLocked(int)
	?NewL@CHnAttributeImage@@SAPAV1@XZ @ 14 NONAME ; class CHnAttributeImage * CHnAttributeImage::NewL(void)
	?CommandName@CHnActionModel@@QBEABVTDesC8@@XZ @ 15 NONAME ; class TDesC8 const & CHnActionModel::CommandName(void) const
	?SetServiceL@CHnActionModel@@QAEXABVTDesC8@@@Z @ 16 NONAME ; void CHnActionModel::SetServiceL(class TDesC8 const &)
	?SetBitmap@CHnAttributeImage@@QAEXPAVTLiwVariant@@@Z @ 17 NONAME ; void CHnAttributeImage::SetBitmap(class TLiwVariant *)
	?SetTemplateL@CHnSuiteModel@@QAEXABVTDesC8@@@Z @ 18 NONAME ; void CHnSuiteModel::SetTemplateL(class TDesC8 const &)
	?UpdateItemTemplateL@CHnSuiteModel@@QAEXH@Z @ 19 NONAME ; void CHnSuiteModel::UpdateItemTemplateL(int)
	?SuiteEvaluated@CHnItemsOrder@@QAEXXZ @ 20 NONAME ; void CHnItemsOrder::SuiteEvaluated(void)
	?Name@CHnAttributeBase@@QBEABVTDesC8@@XZ @ 21 NONAME ; class TDesC8 const & CHnAttributeBase::Name(void) const
	?SetCustomId@CHnItemModel@@QAEX_J@Z @ 22 NONAME ; void CHnItemModel::SetCustomId(long long)
	?CustomId@CHnItemModel@@QAE_JXZ @ 23 NONAME ; long long CHnItemModel::CustomId(void)
	??1CHnSuiteModel@@UAE@XZ @ 24 NONAME ; CHnSuiteModel::~CHnSuiteModel(void)
	?GetActions@CHnItemModel@@QAEPAV?$CArrayPtr@VCHnActionModel@@@@H@Z @ 25 NONAME ; class CArrayPtr<class CHnActionModel> * CHnItemModel::GetActions(int)
	?SetGulIcon@CHnIconHolder@@QAEXPAVCGulIcon@@@Z @ 26 NONAME ; void CHnIconHolder::SetGulIcon(class CGulIcon *)
	?SetValueL@CHnAttributeText@@QAEXABVTDesC8@@@Z @ 27 NONAME ; void CHnAttributeText::SetValueL(class TDesC8 const &)
	?GetItemIdAt@CHnItemsOrder@@QAEHHH@Z @ 28 NONAME ; int CHnItemsOrder::GetItemIdAt(int, int)
	?ClearAttributesL@CHnItemModel@@QAEXXZ @ 29 NONAME ; void CHnItemModel::ClearAttributesL(void)
	?NewLC@CHnAttrImgProvFileImage@@SAPAV1@ABVTDesC16@@@Z @ 30 NONAME ; class CHnAttrImgProvFileImage * CHnAttrImgProvFileImage::NewLC(class TDesC16 const &)
	?ExitMode@CHnSuiteModel@@QAE?AW4TExitMode@@XZ @ 31 NONAME ; enum TExitMode CHnSuiteModel::ExitMode(void)
	?ServiceMode@CHnActionModel@@QBE?AW4TServiceMode@@XZ @ 32 NONAME ; enum TServiceMode CHnActionModel::ServiceMode(void) const
	?GetIcon@CHnButtonModel@@QBEPAVCGulIcon@@XZ @ 33 NONAME ; class CGulIcon * CHnButtonModel::GetIcon(void) const
	?GetSuiteHighlight@CHnSuiteModel@@QAEHXZ @ 34 NONAME ; int CHnSuiteModel::GetSuiteHighlight(void)
	?PopSuiteModelL@CHnSuiteModelContainer@@QAEPAVCHnSuiteModel@@ABVTDesC16@@@Z @ 35 NONAME ; class CHnSuiteModel * CHnSuiteModelContainer::PopSuiteModelL(class TDesC16 const &)
	?NewL@CHnSuiteModelContainer@@SAPAV1@AAVMHnMdModelEventObserver@@AAVMHnControllerInterface@@@Z @ 36 NONAME ; class CHnSuiteModelContainer * CHnSuiteModelContainer::NewL(class MHnMdModelEventObserver &, class MHnControllerInterface &)
	?CommandLC@CHnActionModel@@QBEPAVCLiwGenericParamList@@XZ @ 37 NONAME ; class CLiwGenericParamList * CHnActionModel::CommandLC(void) const
	?InsertItemIdToL@CHnItemsOrder@@QAEXHHH@Z @ 38 NONAME ; void CHnItemsOrder::InsertItemIdToL(int, int, int)
	?SetBitmapId@CHnAttributeImage@@QAEXH@Z @ 39 NONAME ; void CHnAttributeImage::SetBitmapId(int)
	?RefreshMulModelL@CHnSuiteModel@@QAEXH@Z @ 40 NONAME ; void CHnSuiteModel::RefreshMulModelL(int)
	?UnregisterSuiteObserver@CHnSuiteModel@@QAEXPAVMHnSuiteObserver@@@Z @ 41 NONAME ; void CHnSuiteModel::UnregisterSuiteObserver(class MHnSuiteObserver *)
	?SetApplicationUid@CHnAttributeImage@@QAEXVTUid@@@Z @ 42 NONAME ; void CHnAttributeImage::SetApplicationUid(class TUid)
	?GetGulIcon@CHnIconHolder@@QBEPAVCGulIcon@@XZ @ 43 NONAME ; class CGulIcon * CHnIconHolder::GetGulIcon(void) const
	?Command@CHnMenuItemModel@@QAEHXZ @ 44 NONAME ; int CHnMenuItemModel::Command(void)
	?GetButton@CHnToolbarModel@@QBEPBVCHnButtonModel@@H@Z @ 45 NONAME ; class CHnButtonModel const * CHnToolbarModel::GetButton(int) const
	?SetNameL@CHnAttributeBase@@QAEXABVTDesC8@@@Z @ 46 NONAME ; void CHnAttributeBase::SetNameL(class TDesC8 const &)
	?GetSuiteModel@CHnSuiteModelContainer@@QAEPAVCHnSuiteModel@@ABVTDesC16@@@Z @ 47 NONAME ; class CHnSuiteModel * CHnSuiteModelContainer::GetSuiteModel(class TDesC16 const &)
	?SetFileNameSrc@CHnAttributeImage@@QAEXPAVHBufC16@@@Z @ 48 NONAME ; void CHnAttributeImage::SetFileNameSrc(class HBufC16 *)
	?PushL@CHnSuitesStack@@QAEHPAVCHnSuiteModel@@@Z @ 49 NONAME ; int CHnSuitesStack::PushL(class CHnSuiteModel *)
	?OfferHnEventL@CHnSuiteModelContainer@@QAEHHHPAVCLiwGenericParamList@@@Z @ 50 NONAME ; int CHnSuiteModelContainer::OfferHnEventL(int, int, class CLiwGenericParamList *)
	?RemoveLiwObjects@CHnSuiteModelContainer@@QAEXXZ @ 51 NONAME ; void CHnSuiteModelContainer::RemoveLiwObjects(void)
	?HasButtons@CHnToolbarModel@@QBEHXZ @ 52 NONAME ; int CHnToolbarModel::HasButtons(void) const
	?GetItemUid@CHnItemModel@@QAE?AVTUid@@XZ @ 53 NONAME ; class TUid CHnItemModel::GetItemUid(void)
	?AddItemL@CHnSuiteModel@@QAEXHPAVCHnItemModel@@HH@Z @ 54 NONAME ; void CHnSuiteModel::AddItemL(int, class CHnItemModel *, int, int)
	?GetDimmed@CHnButtonModel@@QBEHXZ @ 55 NONAME ; int CHnButtonModel::GetDimmed(void) const
	?GetItemsOrder@CHnSuiteModel@@QAEPAVCHnItemsOrder@@XZ @ 56 NONAME ; class CHnItemsOrder * CHnSuiteModel::GetItemsOrder(void)
	?PushNewSuiteModelL@CHnSuiteModelContainer@@QAEXABVTDesC16@@@Z @ 57 NONAME ; void CHnSuiteModelContainer::PushNewSuiteModelL(class TDesC16 const &)
	?Interface@CHnActionModel@@QBEABVTDesC8@@XZ @ 58 NONAME ; class TDesC8 const & CHnActionModel::Interface(void) const
	?GetAttribute@CHnItemModel@@QAEPAVCHnAttributeBase@@ABVTDesC8@@@Z @ 59 NONAME ; class CHnAttributeBase * CHnItemModel::GetAttribute(class TDesC8 const &)
	?SetInterfaceL@CHnActionModel@@QAEXABVTDesC8@@@Z @ 60 NONAME ; void CHnActionModel::SetInterfaceL(class TDesC8 const &)
	?HasNext@CHnMenuItemModel@@UAEHXZ @ 61 NONAME ; int CHnMenuItemModel::HasNext(void)
	?Type@CHnAttributeBase@@QAE?AW4TAttributeType@@XZ @ 62 NONAME ; enum TAttributeType CHnAttributeBase::Type(void)
	?RegisterSuiteObserverL@CHnSuiteModel@@QAEXPAVMHnSuiteObserver@@W4TThreadPriority@@@Z @ 63 NONAME ; void CHnSuiteModel::RegisterSuiteObserverL(class MHnSuiteObserver *, enum TThreadPriority)
	?GetItemModelsCount@CHnSuiteModel@@QAEHXZ @ 64 NONAME ; int CHnSuiteModel::GetItemModelsCount(void)
	?SetToolbarModel@CHnItemModel@@QAEXPAVCHnToolbarModel@@@Z @ 65 NONAME ; void CHnItemModel::SetToolbarModel(class CHnToolbarModel *)
	?SetServiceModeL@CHnActionModel@@QAEXW4TServiceMode@@@Z @ 66 NONAME ; void CHnActionModel::SetServiceModeL(enum TServiceMode)
	?SetMenuItemModel@CHnItemModel@@QAEXPAVCHnMenuItemModel@@@Z @ 67 NONAME ; void CHnItemModel::SetMenuItemModel(class CHnMenuItemModel *)
	?SetHelpTextL@CHnButtonModel@@QAEXABVTDesC16@@@Z @ 68 NONAME ; void CHnButtonModel::SetHelpTextL(class TDesC16 const &)
	?NewLC@CHnButtonModel@@SAPAV1@H@Z @ 69 NONAME ; class CHnButtonModel * CHnButtonModel::NewLC(int)
	??ACHnItemsOrder@@QAEHH@Z @ 70 NONAME ; int CHnItemsOrder::operator[](int)
	?ClearFlags@CHnItemModel@@QAEXXZ @ 71 NONAME ; void CHnItemModel::ClearFlags(void)
	?GetToolbarModel@CHnItemModel@@QBEPBVCHnToolbarModel@@XZ @ 72 NONAME ; class CHnToolbarModel const * CHnItemModel::GetToolbarModel(void) const
	?GetActions@CHnSuiteModel@@QAEPAV?$CArrayPtr@VCHnActionModel@@@@H@Z @ 73 NONAME ; class CArrayPtr<class CHnActionModel> * CHnSuiteModel::GetActions(int)
	?WidgetType@CHnSuiteModel@@QBEHXZ @ 74 NONAME ; int CHnSuiteModel::WidgetType(void) const
	?Reset@CHnMenuItemModel@@UAEXXZ @ 75 NONAME ; void CHnMenuItemModel::Reset(void)
	?SetItemIdAtL@CHnItemsOrder@@QAEXHH@Z @ 76 NONAME ; void CHnItemsOrder::SetItemIdAtL(int, int)
	?GetIcon@CHnAttributeBase@@UAEPAVCGulIcon@@PAVTSize@@@Z @ 77 NONAME ; class CGulIcon * CHnAttributeBase::GetIcon(class TSize *)
	?GetMatchingSuiteModel@CHnSuiteModelContainer@@QAEPAVCHnSuiteModel@@_J@Z @ 78 NONAME ; class CHnSuiteModel * CHnSuiteModelContainer::GetMatchingSuiteModel(long long)
	?NewL@CHnSuiteModel@@SAPAV1@AAVCHnEventHandler@@ABVTDesC16@@@Z @ 79 NONAME ; class CHnSuiteModel * CHnSuiteModel::NewL(class CHnEventHandler &, class TDesC16 const &)
	?NewL@CHnAttrImgProvLiwImage@@SAPAV1@AAPAVTLiwVariant@@0@Z @ 80 NONAME ; class CHnAttrImgProvLiwImage * CHnAttrImgProvLiwImage::NewL(class TLiwVariant * &, class TLiwVariant * &)
	?CustomId@CHnSuiteModel@@QAE_JXZ @ 81 NONAME ; long long CHnSuiteModel::CustomId(void)
	?Count@CHnItemsOrder@@QAEHXZ @ 82 NONAME ; int CHnItemsOrder::Count(void)
	?Position@CHnMenuItemModel@@QAEHXZ @ 83 NONAME ; int CHnMenuItemModel::Position(void)
	?IsEmpty@CHnSuitesStack@@QAEHXZ @ 84 NONAME ; int CHnSuitesStack::IsEmpty(void)
	?GetItemPosition@CHnItemsOrder@@QAEHH@Z @ 85 NONAME ; int CHnItemsOrder::GetItemPosition(int)
	?GetSuiteId@CHnItemsOrder@@QBEHXZ @ 86 NONAME ; int CHnItemsOrder::GetSuiteId(void) const
	?AppendChildMenuL@CHnMenuItemModel@@QAEXPAV1@@Z @ 87 NONAME ; void CHnMenuItemModel::AppendChildMenuL(class CHnMenuItemModel *)
	?NewLC@CHnToolbarModel@@SAPAV1@XZ @ 88 NONAME ; class CHnToolbarModel * CHnToolbarModel::NewLC(void)
	?GetSuiteModel@CHnSuiteModelContainer@@QAEPAVCHnSuiteModel@@H@Z @ 89 NONAME ; class CHnSuiteModel * CHnSuiteModelContainer::GetSuiteModel(int)
	?SetTitleL@CHnSuiteModel@@QAEXABVTDesC16@@@Z @ 90 NONAME ; void CHnSuiteModel::SetTitleL(class TDesC16 const &)
	?GetItemModel@CHnSuiteModel@@QAEPAVCHnItemModel@@H@Z @ 91 NONAME ; class CHnItemModel * CHnSuiteModel::GetItemModel(int)
	?GetMenuStructureL@CHnSuiteModel@@QAEPAVMHnMenuItemModelIterator@@H@Z @ 92 NONAME ; class MHnMenuItemModelIterator * CHnSuiteModel::GetMenuStructureL(int)
	?RemoveAllItems@CHnSuiteModel@@QAEXXZ @ 93 NONAME ; void CHnSuiteModel::RemoveAllItems(void)
	?SetPosition@CHnMenuItemModel@@QAEXH@Z @ 94 NONAME ; void CHnMenuItemModel::SetPosition(int)
	?Service@CHnActionModel@@QBEABVTDesC8@@XZ @ 95 NONAME ; class TDesC8 const & CHnActionModel::Service(void) const
	?SetFlag@CHnItemModel@@QAEXH@Z @ 96 NONAME ; void CHnItemModel::SetFlag(int)
	?ConstructorLC@CHnActionModel@@QAEPAVCLiwGenericParamList@@XZ @ 97 NONAME ; class CLiwGenericParamList * CHnActionModel::ConstructorLC(void)
	?SetExitMode@CHnSuiteModel@@QAEXW4TExitMode@@@Z @ 98 NONAME ; void CHnSuiteModel::SetExitMode(enum TExitMode)
	?SetSuiteId@CHnItemsOrder@@QAEXH@Z @ 99 NONAME ; void CHnItemsOrder::SetSuiteId(int)
	?NewL@CHnItemsOrder@@SAPAV1@XZ @ 100 NONAME ; class CHnItemsOrder * CHnItemsOrder::NewL(void)
	?NewL@CHnItemModel@@SAPAV1@XZ @ 101 NONAME ; class CHnItemModel * CHnItemModel::NewL(void)
	?SetCommand@CHnMenuItemModel@@QAEXH@Z @ 102 NONAME ; void CHnMenuItemModel::SetCommand(int)
	?Title@CHnSuiteModel@@QBEABVTDesC16@@XZ @ 103 NONAME ; class TDesC16 const & CHnSuiteModel::Title(void) const
	?GetParentSuiteModel@CHnSuiteModelContainer@@QAEPAVCHnSuiteModel@@XZ @ 104 NONAME ; class CHnSuiteModel * CHnSuiteModelContainer::GetParentSuiteModel(void)
	?GetIcon@CHnAttributeImage@@UAEPAVCGulIcon@@PAVTSize@@@Z @ 105 NONAME ; class CGulIcon * CHnAttributeImage::GetIcon(class TSize *)
	?RemoveItemId@CHnItemsOrder@@QAEXH@Z @ 106 NONAME ; void CHnItemsOrder::RemoveItemId(int)
	?ExecuteActionL@CHnEventHandler@@QAEHPAVCHnActionModel@@@Z @ 107 NONAME ; int CHnEventHandler::ExecuteActionL(class CHnActionModel *)
	?IsDrmExpired@CHnItemModel@@QAEHXZ @ 108 NONAME ; int CHnItemModel::IsDrmExpired(void)
	?Count@CHnSuitesStack@@QAEHXZ @ 109 NONAME ; int CHnSuitesStack::Count(void)
	?SetGulIcon@CHnExtBmpIconHolder@@QAEXPAVCGulIcon@@PAVCLiwBitmapBuffer@@1@Z @ 110 NONAME ; void CHnExtBmpIconHolder::SetGulIcon(class CGulIcon *, class CLiwBitmapBuffer *, class CLiwBitmapBuffer *)
	?GetLast@CHnSuitesStack@@QAEPAVCHnSuiteModel@@XZ @ 111 NONAME ; class CHnSuiteModel * CHnSuitesStack::GetLast(void)
	?NewLC@CHnAttrImgProvAppImage@@SAPAV1@VTUid@@@Z @ 112 NONAME ; class CHnAttrImgProvAppImage * CHnAttrImgProvAppImage::NewLC(class TUid)
	?SetMiddleSoftKey@CHnItemModel@@QAEXPAVCHnButtonModel@@@Z @ 113 NONAME ; void CHnItemModel::SetMiddleSoftKey(class CHnButtonModel *)
	?NewL@CHnSuitesStack@@SAPAV1@AAVMHnControllerInterface@@@Z @ 114 NONAME ; class CHnSuitesStack * CHnSuitesStack::NewL(class MHnControllerInterface &)
	?GetEventId@CHnButtonModel@@QBEHXZ @ 115 NONAME ; int CHnButtonModel::GetEventId(void) const
	?GetItemType@CHnSuiteModel@@QAE?AW4TMcsItemType@@H@Z @ 116 NONAME ; enum TMcsItemType CHnSuiteModel::GetItemType(int)
	?IsSuiteReadyToShow@CHnItemsOrder@@QAEHXZ @ 117 NONAME ; int CHnItemsOrder::IsSuiteReadyToShow(void)
	?EmptyText@CHnSuiteModel@@QBEABVTDesC16@@XZ @ 118 NONAME ; class TDesC16 const & CHnSuiteModel::EmptyText(void) const
	?GetItemIdAt@CHnItemsOrder@@QAEHH@Z @ 119 NONAME ; int CHnItemsOrder::GetItemIdAt(int)
	?GetMenuStructure@CHnMenuItemModel@@QAEPAVMHnMenuItemModelIterator@@XZ @ 120 NONAME ; class MHnMenuItemModelIterator * CHnMenuItemModel::GetMenuStructure(void)
	?NewL@CHnAttrImgProvFileImage@@SAPAV1@ABVTDesC16@@@Z @ 121 NONAME ; class CHnAttrImgProvFileImage * CHnAttrImgProvFileImage::NewL(class TDesC16 const &)
	?MarkSuiteUninitialized@CHnItemsOrder@@QAEXXZ @ 122 NONAME ; void CHnItemsOrder::MarkSuiteUninitialized(void)
	?IsMoveLocked@CHnItemModel@@QAEHXZ @ 123 NONAME ; int CHnItemModel::IsMoveLocked(void)
	?SetMask@CHnAttributeImage@@QAEXPAVTLiwVariant@@@Z @ 124 NONAME ; void CHnAttributeImage::SetMask(class TLiwVariant *)
	?ItemEvaluated@CHnItemsOrder@@QAEXH@Z @ 125 NONAME ; void CHnItemsOrder::ItemEvaluated(int)
	??1CHnToolbarModel@@UAE@XZ @ 126 NONAME ; CHnToolbarModel::~CHnToolbarModel(void)
	?SuiteName@CHnSuiteModel@@QBEABVTDesC16@@XZ @ 127 NONAME ; class TDesC16 const & CHnSuiteModel::SuiteName(void) const
	?SetTemplateL@CHnItemModel@@QAEXABVTDesC8@@@Z @ 128 NONAME ; void CHnItemModel::SetTemplateL(class TDesC8 const &)
	?GetIndex@CHnButtonModel@@QBEHXZ @ 129 NONAME ; int CHnButtonModel::GetIndex(void) const
	?QueueFocus@CHnSuiteModel@@QAEXH@Z @ 130 NONAME ; void CHnSuiteModel::QueueFocus(int)
	?IsDeleteLocked@CHnItemModel@@QAEHXZ @ 131 NONAME ; int CHnItemModel::IsDeleteLocked(void)
	?SetConstructorL@CHnActionModel@@QAEXPAVCHnMdBaseKey@@@Z @ 132 NONAME ; void CHnActionModel::SetConstructorL(class CHnMdBaseKey *)
	?IdByIndex@CHnSuiteModel@@QAEHH@Z @ 133 NONAME ; int CHnSuiteModel::IdByIndex(int)
	?NewLC@CHnAttributeImage@@SAPAV1@XZ @ 134 NONAME ; class CHnAttributeImage * CHnAttributeImage::NewLC(void)
	?IsItemBetweenMoveLocked@CHnSuiteModel@@QAEHHH@Z @ 135 NONAME ; int CHnSuiteModel::IsItemBetweenMoveLocked(int, int)
	?SetMifFile@CHnAttributeImage@@QAEXPAVHBufC16@@@Z @ 136 NONAME ; void CHnAttributeImage::SetMifFile(class HBufC16 *)
	?GetSuiteModelCount@CHnSuiteModelContainer@@QBEHXZ @ 137 NONAME ; int CHnSuiteModelContainer::GetSuiteModelCount(void) const
	?HasToolbar@CHnSuiteModel@@QBEHXZ @ 138 NONAME ; int CHnSuiteModel::HasToolbar(void) const
	?SetAttributeL@CHnItemModel@@QAEXPAVCHnAttributeBase@@@Z @ 139 NONAME ; void CHnItemModel::SetAttributeL(class CHnAttributeBase *)
	?SetEventId@CHnButtonModel@@QAEXH@Z @ 140 NONAME ; void CHnButtonModel::SetEventId(int)
	?GetLastSuiteModel@CHnSuiteModelContainer@@QAEPAVCHnSuiteModel@@XZ @ 141 NONAME ; class CHnSuiteModel * CHnSuiteModelContainer::GetLastSuiteModel(void)
	?NewL@CHnAttrImgProvSvgImage@@SAPAV1@ABVTDesC16@@@Z @ 142 NONAME ; class CHnAttrImgProvSvgImage * CHnAttrImgProvSvgImage::NewL(class TDesC16 const &)
	?RemoveItemL@CHnSuiteModel@@QAEXH@Z @ 143 NONAME ; void CHnSuiteModel::RemoveItemL(int)
	?GetTemplate@CHnItemModel@@QAEABVTDesC8@@XZ @ 144 NONAME ; class TDesC8 const & CHnItemModel::GetTemplate(void)
	?SetMaskId@CHnAttributeImage@@QAEXH@Z @ 145 NONAME ; void CHnAttributeImage::SetMaskId(int)
	?GetActions@CHnSuiteModel@@QAEAAV?$RHashMap@HPAV?$CArrayPtr@VCHnActionModel@@@@@@XZ @ 146 NONAME ; class RHashMap<int, class CArrayPtr<class CHnActionModel> *> & CHnSuiteModel::GetActions(void)
	?GetItemType@CHnItemModel@@QAE?AW4TMcsItemType@@XZ @ 147 NONAME ; enum TMcsItemType CHnItemModel::GetItemType(void)
	?GetButtonText@CHnButtonModel@@QBEABVTDesC16@@XZ @ 148 NONAME ; class TDesC16 const & CHnButtonModel::GetButtonText(void) const
	?NewL@CHnAttributeText@@SAPAV1@XZ @ 149 NONAME ; class CHnAttributeText * CHnAttributeText::NewL(void)
	?GetNext@CHnMenuItemModel@@UAEPAV1@XZ @ 150 NONAME ; class CHnMenuItemModel * CHnMenuItemModel::GetNext(void)
	?DefineModelItemCountL@CHnItemsOrder@@QAEXH@Z @ 151 NONAME ; void CHnItemsOrder::DefineModelItemCountL(int)
	?SuiteEvaluationFinishedL@CHnSuiteModel@@QAEHXZ @ 152 NONAME ; int CHnSuiteModel::SuiteEvaluationFinishedL(void)
	?ItemEvaluationFinishedL@CHnSuiteModel@@QAEHH@Z @ 153 NONAME ; int CHnSuiteModel::ItemEvaluationFinishedL(int)
	?NewL@CHnMenuItemModel@@SAPAV1@ABVTDesC16@@@Z @ 154 NONAME ; class CHnMenuItemModel * CHnMenuItemModel::NewL(class TDesC16 const &)
	?ReorderItemsL@CHnSuiteModel@@QAEHHH@Z @ 155 NONAME ; int CHnSuiteModel::ReorderItemsL(int, int)
	?GetIdsForL@CHnItemsOrder@@QAEXHAAV?$RArray@H@@@Z @ 156 NONAME ; void CHnItemsOrder::GetIdsForL(int, class RArray<int> &)
	?NewLC@CHnAttrImgProvThemeMif@@SAPAV1@VTAknsItemID@@ABVTDesC16@@HH@Z @ 157 NONAME ; class CHnAttrImgProvThemeMif * CHnAttrImgProvThemeMif::NewLC(class TAknsItemID, class TDesC16 const &, int, int)
	?SetWidgetType@CHnSuiteModel@@QAEXW4THnSuiteWidgetType@@@Z @ 158 NONAME ; void CHnSuiteModel::SetWidgetType(enum THnSuiteWidgetType)
	?NotifyObserversL@CHnSuiteModel@@QAEXW4THnCustomSuiteEvent@@@Z @ 159 NONAME ; void CHnSuiteModel::NotifyObserversL(enum THnCustomSuiteEvent)
	?DeleteAllActionModels@CHnItemModel@@QAEXXZ @ 160 NONAME ; void CHnItemModel::DeleteAllActionModels(void)
	?SetSuiteHighlightL@CHnSuiteModel@@QAEXH@Z @ 161 NONAME ; void CHnSuiteModel::SetSuiteHighlightL(int)
	?SetCustomId@CHnSuiteModel@@QAEX_J@Z @ 162 NONAME ; void CHnSuiteModel::SetCustomId(long long)
	?SetCommandNameL@CHnActionModel@@QAEXABVTDesC8@@@Z @ 163 NONAME ; void CHnActionModel::SetCommandNameL(class TDesC8 const &)
	?NewLC@CHnItemsOrder@@SAPAV1@XZ @ 164 NONAME ; class CHnItemsOrder * CHnItemsOrder::NewLC(void)
	?SetCommand@CHnActionModel@@QAEXPAVCHnMdBaseKey@@@Z @ 165 NONAME ; void CHnActionModel::SetCommand(class CHnMdBaseKey *)
	?NewL@CHnAttrImgProvAppImage@@SAPAV1@VTUid@@@Z @ 166 NONAME ; class CHnAttrImgProvAppImage * CHnAttrImgProvAppImage::NewL(class TUid)
	?NewLC@CHnAttributeText@@SAPAV1@XZ @ 167 NONAME ; class CHnAttributeText * CHnAttributeText::NewLC(void)
	?NewLC@CHnSuiteModelContainer@@SAPAV1@AAVMHnMdModelEventObserver@@AAVMHnControllerInterface@@@Z @ 168 NONAME ; class CHnSuiteModelContainer * CHnSuiteModelContainer::NewLC(class MHnMdModelEventObserver &, class MHnControllerInterface &)
	?IsRunning@CHnItemModel@@QAEHXZ @ 169 NONAME ; int CHnItemModel::IsRunning(void)
	?NewL@CHnActionModel@@SAPAV1@XZ @ 170 NONAME ; class CHnActionModel * CHnActionModel::NewL(void)
	?AddButtonL@CHnToolbarModel@@QAEXPAVCHnButtonModel@@@Z @ 171 NONAME ; void CHnToolbarModel::AddButtonL(class CHnButtonModel *)
	?SetItemUidL@CHnItemModel@@QAEXABVTDesC8@@@Z @ 172 NONAME ; void CHnItemModel::SetItemUidL(class TDesC8 const &)
	?SetType@CHnItemModel@@QAEXABVTDesC8@@@Z @ 173 NONAME ; void CHnItemModel::SetType(class TDesC8 const &)
	?SetSkinId@CHnAttributeImage@@QAEXVTAknsItemID@@@Z @ 174 NONAME ; void CHnAttributeImage::SetSkinId(class TAknsItemID)
	?NameL@CHnMenuItemModel@@QAEABVTDesC16@@XZ @ 175 NONAME ; class TDesC16 const & CHnMenuItemModel::NameL(void)
	?PopL@CHnSuitesStack@@QAEPAVCHnSuiteModel@@XZ @ 176 NONAME ; class CHnSuiteModel * CHnSuitesStack::PopL(void)
	?SetVisibleL@CHnSuiteModel@@QAEXH@Z @ 177 NONAME ; void CHnSuiteModel::SetVisibleL(int)
	?SetIcon@CHnButtonModel@@QAEXPAVCHnAttributeBase@@@Z @ 178 NONAME ; void CHnButtonModel::SetIcon(class CHnAttributeBase *)
	?NewL@CHnAttrImgProvThemeMif@@SAPAV1@VTAknsItemID@@ABVTDesC16@@HH@Z @ 179 NONAME ; class CHnAttrImgProvThemeMif * CHnAttrImgProvThemeMif::NewL(class TAknsItemID, class TDesC16 const &, int, int)
	?NewLC@CHnAttrImgProvLiwImage@@SAPAV1@AAPAVTLiwVariant@@0@Z @ 180 NONAME ; class CHnAttrImgProvLiwImage * CHnAttrImgProvLiwImage::NewLC(class TLiwVariant * &, class TLiwVariant * &)
	?GetTemplate@CHnSuiteModel@@QBEABVTDesC8@@XZ @ 181 NONAME ; class TDesC8 const & CHnSuiteModel::GetTemplate(void) const
	?GetActions@CHnItemModel@@QAEAAV?$RHashMap@HPAV?$CArrayPtr@VCHnActionModel@@@@@@XZ @ 182 NONAME ; class RHashMap<int, class CArrayPtr<class CHnActionModel> *> & CHnItemModel::GetActions(void)
	?SetMenuItemType@CHnMenuItemModel@@QAEXW4THnMenuItemType@1@@Z @ 183 NONAME ; void CHnMenuItemModel::SetMenuItemType(enum CHnMenuItemModel::THnMenuItemType)
	?HasNextSpecific@CHnMenuItemModel@@UAEHXZ @ 184 NONAME ; int CHnMenuItemModel::HasNextSpecific(void)
	?GetNextSpecific@CHnMenuItemModel@@UAEPAV1@XZ @ 185 NONAME ; class CHnMenuItemModel * CHnMenuItemModel::GetNextSpecific(void)
	?MenuItemType@CHnMenuItemModel@@QAE?AW4THnMenuItemType@1@XZ @ 186 NONAME ; enum CHnMenuItemModel::THnMenuItemType CHnMenuItemModel::MenuItemType(void)

