EXPORTS
	?ScreenshotHandle@CTsFswEntry@@QBEHXZ @ 1 NONAME ; int CTsFswEntry::ScreenshotHandle(void) const
	?AlwaysShown@CTsFswEntry@@QBEHXZ @ 2 NONAME ; int CTsFswEntry::AlwaysShown(void) const
	?SystemApp@CTsFswEntry@@QBEHXZ @ 3 NONAME ; int CTsFswEntry::SystemApp(void) const
	?SetAppNameL@CTsFswEntry@@QAEXABVTDesC16@@@Z @ 4 NONAME ; void CTsFswEntry::SetAppNameL(class TDesC16 const &)
	?ExternalizeL@CTsFswEntry@@QAEXAAVRWriteStream@@@Z @ 5 NONAME ; void CTsFswEntry::ExternalizeL(class RWriteStream &)
	?ExternalizeArrayL@CTsFswEntry@@SAXAAVRWriteStream@@ABV?$RPointerArray@VCTsFswEntry@@@@@Z @ 6 NONAME ; void CTsFswEntry::ExternalizeArrayL(class RWriteStream &, class RPointerArray<class CTsFswEntry> const &)
	?AppName@CTsFswEntry@@QBEABVTDesC16@@XZ @ 7 NONAME ; class TDesC16 const & CTsFswEntry::AppName(void) const
	?AppUid@CTsFswEntry@@QBE?AVTUid@@XZ @ 8 NONAME ; class TUid CTsFswEntry::AppUid(void) const
	?AppIconMaskHandle@CTsFswEntry@@QBEHXZ @ 9 NONAME ; int CTsFswEntry::AppIconMaskHandle(void) const
	?SetAppIconHandles@CTsFswEntry@@QAEXHH@Z @ 10 NONAME ; void CTsFswEntry::SetAppIconHandles(int, int)
	?SetAlwaysShown@CTsFswEntry@@QAEXH@Z @ 11 NONAME ; void CTsFswEntry::SetAlwaysShown(int)
	?NewLC@CTsFswEntry@@SAPAV1@XZ @ 12 NONAME ; class CTsFswEntry * CTsFswEntry::NewLC(void)
	?NewL@CTsFswEntry@@SAPAV1@XZ @ 13 NONAME ; class CTsFswEntry * CTsFswEntry::NewL(void)
	?WgId@CTsFswEntry@@QBEHXZ @ 14 NONAME ; int CTsFswEntry::WgId(void) const
	?SetWidget@CTsFswEntry@@QAEXH@Z @ 15 NONAME ; void CTsFswEntry::SetWidget(int)
	?SetAppUid@CTsFswEntry@@QAEXABVTUid@@@Z @ 16 NONAME ; void CTsFswEntry::SetAppUid(class TUid const &)
	?SetWgId@CTsFswEntry@@QAEXH@Z @ 17 NONAME ; void CTsFswEntry::SetWgId(int)
	?SetScreenshotHandle@CTsFswEntry@@QAEXH@Z @ 18 NONAME ; void CTsFswEntry::SetScreenshotHandle(int)
	?InternalizeL@CTsFswEntry@@QAEXAAVRReadStream@@@Z @ 19 NONAME ; void CTsFswEntry::InternalizeL(class RReadStream &)
	?AppIconBitmapHandle@CTsFswEntry@@QBEHXZ @ 20 NONAME ; int CTsFswEntry::AppIconBitmapHandle(void) const
	?SetSystemApp@CTsFswEntry@@QAEXH@Z @ 21 NONAME ; void CTsFswEntry::SetSystemApp(int)
	?Widget@CTsFswEntry@@QBEHXZ @ 22 NONAME ; int CTsFswEntry::Widget(void) const
	?InternalizeArrayL@CTsFswEntry@@SAXAAVRReadStream@@AAV?$RPointerArray@VCTsFswEntry@@@@@Z @ 23 NONAME ; void CTsFswEntry::InternalizeArrayL(class RReadStream &, class RPointerArray<class CTsFswEntry> &)

