EXPORTS
	_ZN12CHnItemModel10ClearFlagsEv @ 1 NONAME
	_ZN12CHnItemModel10GetActionsEi @ 2 NONAME
	_ZN12CHnItemModel10GetActionsEv @ 3 NONAME
	_ZN12CHnItemModel10GetItemUidEv @ 4 NONAME
	_ZN12CHnItemModel11GetItemTypeEv @ 5 NONAME
	_ZN12CHnItemModel11GetTemplateEv @ 6 NONAME
	_ZN12CHnItemModel11SetCustomIdEx @ 7 NONAME
	_ZN12CHnItemModel11SetItemUidLERK6TDesC8 @ 8 NONAME
	_ZN12CHnItemModel12GetAttributeERK6TDesC8 @ 9 NONAME
	_ZN12CHnItemModel12IsDrmExpiredEv @ 10 NONAME
	_ZN12CHnItemModel12IsMoveLockedEv @ 11 NONAME
	_ZN12CHnItemModel12SetTemplateLERK6TDesC8 @ 12 NONAME
	_ZN12CHnItemModel13SetAttributeLEP16CHnAttributeBase @ 13 NONAME
	_ZN12CHnItemModel14IsDeleteLockedEv @ 14 NONAME
	_ZN12CHnItemModel15SetToolbarModelEP15CHnToolbarModel @ 15 NONAME
	_ZN12CHnItemModel16ClearAttributesLEv @ 16 NONAME
	_ZN12CHnItemModel16GetMiddleSoftKeyEv @ 17 NONAME
	_ZN12CHnItemModel16SetMenuItemModelEP16CHnMenuItemModel @ 18 NONAME
	_ZN12CHnItemModel16SetMiddleSoftKeyEP14CHnButtonModel @ 19 NONAME
	_ZN12CHnItemModel21DeleteAllActionModelsEv @ 20 NONAME
	_ZN12CHnItemModel4NewLEv @ 21 NONAME
	_ZN12CHnItemModel7SetFlagEi @ 22 NONAME
	_ZN12CHnItemModel7SetTypeERK6TDesC8 @ 23 NONAME
	_ZN12CHnItemModel8CustomIdEv @ 24 NONAME
	_ZN12CHnItemModel9IsRunningEv @ 25 NONAME
	_ZN13CHnIconHolder10SetGulIconEP8CGulIcon @ 26 NONAME
	_ZN13CHnItemsOrder10GetIdsForLEiR6RArrayIiE @ 27 NONAME
	_ZN13CHnItemsOrder10SetSuiteIdEi @ 28 NONAME
	_ZN13CHnItemsOrder11GetItemIdAtEi @ 29 NONAME
	_ZN13CHnItemsOrder11GetItemIdAtEii @ 30 NONAME
	_ZN13CHnItemsOrder12RemoveItemIdEi @ 31 NONAME
	_ZN13CHnItemsOrder12SetItemIdAtLEii @ 32 NONAME
	_ZN13CHnItemsOrder13ItemEvaluatedEi @ 33 NONAME
	_ZN13CHnItemsOrder14SuiteEvaluatedEv @ 34 NONAME
	_ZN13CHnItemsOrder15GetItemPositionEi @ 35 NONAME
	_ZN13CHnItemsOrder15InsertItemIdToLEiii @ 36 NONAME
	_ZN13CHnItemsOrder17GetModelItemCountEv @ 37 NONAME
	_ZN13CHnItemsOrder18IsSuiteReadyToShowEv @ 38 NONAME
	_ZN13CHnItemsOrder21DefineModelItemCountLEi @ 39 NONAME
	_ZN13CHnItemsOrder22MarkSuiteUninitializedEv @ 40 NONAME
	_ZN13CHnItemsOrder4NewLEv @ 41 NONAME
	_ZN13CHnItemsOrder5CountEv @ 42 NONAME
	_ZN13CHnItemsOrder5NewLCEv @ 43 NONAME
	_ZN13CHnItemsOrderixEi @ 44 NONAME
	_ZN13CHnSuiteModel10GetActionsEi @ 45 NONAME
	_ZN13CHnSuiteModel10GetActionsEv @ 46 NONAME
	_ZN13CHnSuiteModel10QueueFocusEi @ 47 NONAME
	_ZN13CHnSuiteModel10SetActiveLEi @ 48 NONAME
	_ZN13CHnSuiteModel11GetItemTypeEi @ 49 NONAME
	_ZN13CHnSuiteModel11RemoveItemLEi @ 50 NONAME
	_ZN13CHnSuiteModel11SetCustomIdEx @ 51 NONAME
	_ZN13CHnSuiteModel11SetExitModeE9TExitMode @ 52 NONAME
	_ZN13CHnSuiteModel11SetVisibleLEi @ 53 NONAME
	_ZN13CHnSuiteModel12GetItemModelEi @ 54 NONAME
	_ZN13CHnSuiteModel12SetTemplateLERK6TDesC8 @ 55 NONAME
	_ZN13CHnSuiteModel13GetItemsOrderEv @ 56 NONAME
	_ZN13CHnSuiteModel13ReorderItemsLEii @ 57 NONAME
	_ZN13CHnSuiteModel13SetEmptyTextLERK7TDesC16 @ 58 NONAME
	_ZN13CHnSuiteModel13SetWidgetTypeE18THnSuiteWidgetType @ 59 NONAME
	_ZN13CHnSuiteModel14RemoveAllItemsEv @ 60 NONAME
	_ZN13CHnSuiteModel16IsItemMoveLockedEi @ 61 NONAME
	_ZN13CHnSuiteModel16NotifyObserversLE19THnCustomSuiteEvent @ 62 NONAME
	_ZN13CHnSuiteModel16RefreshMulModelLEi @ 63 NONAME
	_ZN13CHnSuiteModel17GetMenuStructureLEi @ 64 NONAME
	_ZN13CHnSuiteModel17GetSuiteHighlightEv @ 65 NONAME
	_ZN13CHnSuiteModel18GetItemModelsCountEv @ 66 NONAME
	_ZN13CHnSuiteModel18SetSuiteHighlightLEi @ 67 NONAME
	_ZN13CHnSuiteModel19UpdateItemTemplateLEi @ 68 NONAME
	_ZN13CHnSuiteModel21GetMatchingItemModelLExRi @ 69 NONAME
	_ZN13CHnSuiteModel22RegisterSuiteObserverLEP16MHnSuiteObserver15TThreadPriority @ 70 NONAME
	_ZN13CHnSuiteModel23IsItemBetweenMoveLockedEii @ 71 NONAME
	_ZN13CHnSuiteModel23ItemEvaluationFinishedLEi @ 72 NONAME
	_ZN13CHnSuiteModel23UnregisterSuiteObserverEP16MHnSuiteObserver @ 73 NONAME
	_ZN13CHnSuiteModel24SuiteEvaluationFinishedLEv @ 74 NONAME
	_ZN13CHnSuiteModel4NewLER15CHnEventHandlerRK7TDesC16 @ 75 NONAME
	_ZN13CHnSuiteModel8AddItemLEiP12CHnItemModelii @ 76 NONAME
	_ZN13CHnSuiteModel8CustomIdEv @ 77 NONAME
	_ZN13CHnSuiteModel8ExitModeEv @ 78 NONAME
	_ZN13CHnSuiteModel8IsActiveEv @ 79 NONAME
	_ZN13CHnSuiteModel9IdByIndexEi @ 80 NONAME
	_ZN13CHnSuiteModel9SetTitleLERK7TDesC16 @ 81 NONAME
	_ZN13CHnSuiteModelD0Ev @ 82 NONAME
	_ZN13CHnSuiteModelD1Ev @ 83 NONAME
	_ZN13CHnSuiteModelD2Ev @ 84 NONAME
	_ZN14CHnActionModel10SetCommandEP12CHnMdBaseKey @ 85 NONAME
	_ZN14CHnActionModel11SetServiceLERK6TDesC8 @ 86 NONAME
	_ZN14CHnActionModel13ConstructorLCEv @ 87 NONAME
	_ZN14CHnActionModel13SetInterfaceLERK6TDesC8 @ 88 NONAME
	_ZN14CHnActionModel15SetCommandNameLERK6TDesC8 @ 89 NONAME
	_ZN14CHnActionModel15SetConstructorLEP12CHnMdBaseKey @ 90 NONAME
	_ZN14CHnActionModel15SetServiceModeLE12TServiceMode @ 91 NONAME
	_ZN14CHnActionModel4NewLEv @ 92 NONAME
	_ZN14CHnButtonModel10SetEventIdEi @ 93 NONAME
	_ZN14CHnButtonModel12SetHelpTextLERK7TDesC16 @ 94 NONAME
	_ZN14CHnButtonModel5NewLCEi @ 95 NONAME
	_ZN14CHnButtonModel7SetIconEP16CHnAttributeBase @ 96 NONAME
	_ZN14CHnButtonModel9SetDimmedEi @ 97 NONAME
	_ZN14CHnButtonModelD0Ev @ 98 NONAME
	_ZN14CHnButtonModelD1Ev @ 99 NONAME
	_ZN14CHnButtonModelD2Ev @ 100 NONAME
	_ZN14CHnSuitesStack12GetRootSuiteEv @ 101 NONAME
	_ZN14CHnSuitesStack3GetEi @ 102 NONAME
	_ZN14CHnSuitesStack4NewLER22MHnControllerInterface @ 103 NONAME
	_ZN14CHnSuitesStack4PopLEv @ 104 NONAME
	_ZN14CHnSuitesStack5CountEv @ 105 NONAME
	_ZN14CHnSuitesStack5PushLEP13CHnSuiteModel @ 106 NONAME
	_ZN14CHnSuitesStack7GetLastEv @ 107 NONAME
	_ZN14CHnSuitesStack7IsEmptyEv @ 108 NONAME
	_ZN15CHnEventHandler14ExecuteActionLEP14CHnActionModel @ 109 NONAME
	_ZN15CHnToolbarModel10AddButtonLEP14CHnButtonModel @ 110 NONAME
	_ZN15CHnToolbarModel5NewLCEv @ 111 NONAME
	_ZN15CHnToolbarModelD0Ev @ 112 NONAME
	_ZN15CHnToolbarModelD1Ev @ 113 NONAME
	_ZN15CHnToolbarModelD2Ev @ 114 NONAME
	_ZN16CHnAttributeBase4TypeEv @ 115 NONAME
	_ZN16CHnAttributeBase5ValueEv @ 116 NONAME
	_ZN16CHnAttributeBase7GetIconEP5TSize @ 117 NONAME
	_ZN16CHnAttributeBase8SetNameLERK6TDesC8 @ 118 NONAME
	_ZN16CHnAttributeText4NewLEv @ 119 NONAME
	_ZN16CHnAttributeText5NewLCEv @ 120 NONAME
	_ZN16CHnAttributeText9SetValueLERK6TDesC8 @ 121 NONAME
	_ZN16CHnMenuItemModel10SetCommandEi @ 122 NONAME
	_ZN16CHnMenuItemModel11SetPositionEi @ 123 NONAME
	_ZN16CHnMenuItemModel16AppendChildMenuLEPS_ @ 124 NONAME
	_ZN16CHnMenuItemModel16GetMenuStructureEv @ 125 NONAME
	_ZN16CHnMenuItemModel4NewLERK7TDesC16 @ 126 NONAME
	_ZN16CHnMenuItemModel5NameLEv @ 127 NONAME
	_ZN16CHnMenuItemModel5ResetEv @ 128 NONAME
	_ZN16CHnMenuItemModel7CommandEv @ 129 NONAME
	_ZN16CHnMenuItemModel7GetNextEv @ 130 NONAME
	_ZN16CHnMenuItemModel7HasNextEv @ 131 NONAME
	_ZN16CHnMenuItemModel8PositionEv @ 132 NONAME
	_ZN17CHnAttributeImage10SetMifFileEP7HBufC16 @ 133 NONAME
	_ZN17CHnAttributeImage11SetBitmapIdEi @ 134 NONAME
	_ZN17CHnAttributeImage14SetFileNameSrcEP7HBufC16 @ 135 NONAME
	_ZN17CHnAttributeImage17SetApplicationUidE4TUid @ 136 NONAME
	_ZN17CHnAttributeImage4NewLEv @ 137 NONAME
	_ZN17CHnAttributeImage5NewLCEv @ 138 NONAME
	_ZN17CHnAttributeImage7GetIconEP5TSize @ 139 NONAME
	_ZN17CHnAttributeImage7SetMaskEP11TLiwVariant @ 140 NONAME
	_ZN17CHnAttributeImage9SetBitmapEP11TLiwVariant @ 141 NONAME
	_ZN17CHnAttributeImage9SetMaskIdEi @ 142 NONAME
	_ZN17CHnAttributeImage9SetSkinIdE11TAknsItemID @ 143 NONAME
	_ZN19CHnExtBmpIconHolder10SetGulIconEP8CGulIconP16CLiwBitmapBufferS3_ @ 144 NONAME
	_ZN22CHnAttrImgProvAppImage4NewLE4TUid @ 145 NONAME
	_ZN22CHnAttrImgProvAppImage5NewLCE4TUid @ 146 NONAME
	_ZN22CHnAttrImgProvLiwImage4NewLERP11TLiwVariantS2_ @ 147 NONAME
	_ZN22CHnAttrImgProvLiwImage5NewLCERP11TLiwVariantS2_ @ 148 NONAME
	_ZN22CHnAttrImgProvSvgImage4NewLERK7TDesC16 @ 149 NONAME
	_ZN22CHnAttrImgProvSvgImage5NewLCERK7TDesC16 @ 150 NONAME
	_ZN22CHnAttrImgProvThemeMif4NewLE11TAknsItemIDRK7TDesC16ii @ 151 NONAME
	_ZN22CHnAttrImgProvThemeMif5NewLCE11TAknsItemIDRK7TDesC16ii @ 152 NONAME
	_ZN22CHnSuiteModelContainer13GetSuiteModelERK7TDesC16 @ 153 NONAME
	_ZN22CHnSuiteModelContainer13GetSuiteModelEi @ 154 NONAME
	_ZN22CHnSuiteModelContainer13OfferHnEventLEiiP20CLiwGenericParamList @ 155 NONAME
	_ZN22CHnSuiteModelContainer14PopSuiteModelLERK7TDesC16 @ 156 NONAME
	_ZN22CHnSuiteModelContainer16RemoveLiwObjectsEv @ 157 NONAME
	_ZN22CHnSuiteModelContainer17GetLastSuiteModelEv @ 158 NONAME
	_ZN22CHnSuiteModelContainer18PushNewSuiteModelLERK7TDesC16 @ 159 NONAME
	_ZN22CHnSuiteModelContainer19GetParentSuiteModelEv @ 160 NONAME
	_ZN22CHnSuiteModelContainer21GetMatchingSuiteModelEx @ 161 NONAME
	_ZN22CHnSuiteModelContainer4NewLER23MHnMdModelEventObserverR22MHnControllerInterface @ 162 NONAME
	_ZN22CHnSuiteModelContainer5NewLCER23MHnMdModelEventObserverR22MHnControllerInterface @ 163 NONAME
	_ZN23CHnAttrImgProvFileImage4NewLERK7TDesC16 @ 164 NONAME
	_ZN23CHnAttrImgProvFileImage5NewLCERK7TDesC16 @ 165 NONAME
	_ZNK12CHnItemModel15GetToolbarModelEv @ 166 NONAME
	_ZNK13CHnIconHolder10GetGulIconEv @ 167 NONAME
	_ZNK13CHnItemsOrder10GetSuiteIdEv @ 168 NONAME
	_ZNK13CHnSuiteModel10HasToolbarEv @ 169 NONAME
	_ZNK13CHnSuiteModel10WidgetTypeEv @ 170 NONAME
	_ZNK13CHnSuiteModel11GetTemplateEv @ 171 NONAME
	_ZNK13CHnSuiteModel5TitleEv @ 172 NONAME
	_ZNK13CHnSuiteModel9EmptyTextEv @ 173 NONAME
	_ZNK13CHnSuiteModel9SuiteNameEv @ 174 NONAME
	_ZNK14CHnActionModel11CommandNameEv @ 175 NONAME
	_ZNK14CHnActionModel11ServiceModeEv @ 176 NONAME
	_ZNK14CHnActionModel7ServiceEv @ 177 NONAME
	_ZNK14CHnActionModel9CommandLCEv @ 178 NONAME
	_ZNK14CHnActionModel9InterfaceEv @ 179 NONAME
	_ZNK14CHnButtonModel10GetEventIdEv @ 180 NONAME
	_ZNK14CHnButtonModel13GetButtonTextEv @ 181 NONAME
	_ZNK14CHnButtonModel7GetIconEv @ 182 NONAME
	_ZNK14CHnButtonModel8GetIndexEv @ 183 NONAME
	_ZNK14CHnButtonModel9GetDimmedEv @ 184 NONAME
	_ZNK15CHnToolbarModel10HasButtonsEv @ 185 NONAME
	_ZNK15CHnToolbarModel9GetButtonEi @ 186 NONAME
	_ZNK16CHnAttributeBase4NameEv @ 187 NONAME
	_ZNK22CHnSuiteModelContainer18GetSuiteModelCountEv @ 188 NONAME
	_ZTI19CHnExtBmpIconHolder @ 189 NONAME
	_ZTV19CHnExtBmpIconHolder @ 190 NONAME
	_ZThn4_N16CHnMenuItemModel5ResetEv @ 191 NONAME
	_ZThn4_N16CHnMenuItemModel7GetNextEv @ 192 NONAME
	_ZThn4_N16CHnMenuItemModel7HasNextEv @ 193 NONAME
	_ZN16CHnMenuItemModel15GetNextSpecificEv @ 194 NONAME
	_ZN16CHnMenuItemModel15HasNextSpecificEv @ 195 NONAME
	_ZN16CHnMenuItemModel15SetItemSpecificEi @ 196 NONAME
	_ZThn4_N16CHnMenuItemModel15GetNextSpecificEv @ 197 NONAME
	_ZThn4_N16CHnMenuItemModel15HasNextSpecificEv @ 198 NONAME
	_ZN16CHnMenuItemModel14IsItemSpecificEv @ 199 NONAME

