EXPORTS
	?GetTemplatedPublishersL@CCpsWrapper@cpswrapper@@QAEPAVCPublisherMap@2@XZ @ 1 NONAME ; class cpswrapper::CPublisherMap * cpswrapper::CCpsWrapper::GetTemplatedPublishersL(void)
	?ContentType@CPublisherInfo@cpswrapper@@QBEABVTDesC16@@XZ @ 2 NONAME ; class TDesC16 const & cpswrapper::CPublisherInfo::ContentType(void) const
	?PublisherId@CPublisherInfo@cpswrapper@@QBEABVTDesC16@@XZ @ 3 NONAME ; class TDesC16 const & cpswrapper::CPublisherInfo::PublisherId(void) const
	?AddPublisherInfoL@CPublisherMap@cpswrapper@@QAEXPAVCPublisherInfo@2@@Z @ 4 NONAME ; void cpswrapper::CPublisherMap::AddPublisherInfoL(class cpswrapper::CPublisherInfo *)
	?SetWidgetNameL@CPublisherInfo@cpswrapper@@QAEXABVTDesC16@@@Z @ 5 NONAME ; void cpswrapper::CPublisherInfo::SetWidgetNameL(class TDesC16 const &)
	?MaxWidgets@CPublisherInfo@cpswrapper@@QBEABJXZ @ 6 NONAME ; long const & cpswrapper::CPublisherInfo::MaxWidgets(void) const
	?NewL@CPublisherInfo@cpswrapper@@SAPAV12@XZ @ 7 NONAME ; class cpswrapper::CPublisherInfo * cpswrapper::CPublisherInfo::NewL(void)
	?SetTemplateTypeL@CPublisherInfo@cpswrapper@@QAEXABVTDesC16@@@Z @ 8 NONAME ; void cpswrapper::CPublisherInfo::SetTemplateTypeL(class TDesC16 const &)
	?SetPublisherIdL@CPublisherInfo@cpswrapper@@QAEXABVTDesC16@@@Z @ 9 NONAME ; void cpswrapper::CPublisherInfo::SetPublisherIdL(class TDesC16 const &)
	?Description@CPublisherInfo@cpswrapper@@QBEABVTDesC16@@XZ @ 10 NONAME ; class TDesC16 const & cpswrapper::CPublisherInfo::Description(void) const
	?SetMaxWidgets@CPublisherInfo@cpswrapper@@QAEXABJ@Z @ 11 NONAME ; void cpswrapper::CPublisherInfo::SetMaxWidgets(long const &)
	?SetContentTypeL@CPublisherInfo@cpswrapper@@QAEXABVTDesC16@@@Z @ 12 NONAME ; void cpswrapper::CPublisherInfo::SetContentTypeL(class TDesC16 const &)
	?NewL@CPublisherMap@cpswrapper@@SAPAV12@XZ @ 13 NONAME ; class cpswrapper::CPublisherMap * cpswrapper::CPublisherMap::NewL(void)
	?ContentId@CPublisherInfo@cpswrapper@@QBEABVTDesC16@@XZ @ 14 NONAME ; class TDesC16 const & cpswrapper::CPublisherInfo::ContentId(void) const
	?NewLC@CCpsWrapper@cpswrapper@@SAPAV12@AAVMCpsWrapperObserver@2@@Z @ 15 NONAME ; class cpswrapper::CCpsWrapper * cpswrapper::CCpsWrapper::NewLC(class cpswrapper::MCpsWrapperObserver &)
	?PublisherInfo@CPublisherMap@cpswrapper@@QBEAAV?$RPointerArray@VCPublisherInfo@cpswrapper@@@@XZ @ 16 NONAME ; class RPointerArray<class cpswrapper::CPublisherInfo> & cpswrapper::CPublisherMap::PublisherInfo(void) const
	??1CCpsWrapper@cpswrapper@@UAE@XZ @ 17 NONAME ; cpswrapper::CCpsWrapper::~CCpsWrapper(void)
	??1CPublisherInfo@cpswrapper@@UAE@XZ @ 18 NONAME ; cpswrapper::CPublisherInfo::~CPublisherInfo(void)
	??1CPublisherMap@cpswrapper@@UAE@XZ @ 19 NONAME ; cpswrapper::CPublisherMap::~CPublisherMap(void)
	?TemplateType@CPublisherInfo@cpswrapper@@QBEABVTDesC16@@XZ @ 20 NONAME ; class TDesC16 const & cpswrapper::CPublisherInfo::TemplateType(void) const
	?SetContentIdL@CPublisherInfo@cpswrapper@@QAEXABVTDesC16@@@Z @ 21 NONAME ; void cpswrapper::CPublisherInfo::SetContentIdL(class TDesC16 const &)
	?NewLC@CPublisherInfo@cpswrapper@@SAPAV12@XZ @ 22 NONAME ; class cpswrapper::CPublisherInfo * cpswrapper::CPublisherInfo::NewLC(void)
	?NewLC@CPublisherMap@cpswrapper@@SAPAV12@XZ @ 23 NONAME ; class cpswrapper::CPublisherMap * cpswrapper::CPublisherMap::NewLC(void)
	?SetLogoIconL@CPublisherInfo@cpswrapper@@QAEXABVTDesC16@@@Z @ 24 NONAME ; void cpswrapper::CPublisherInfo::SetLogoIconL(class TDesC16 const &)
	?LogoIcon@CPublisherInfo@cpswrapper@@QBEABVTDesC16@@XZ @ 25 NONAME ; class TDesC16 const & cpswrapper::CPublisherInfo::LogoIcon(void) const
	?WidgetName@CPublisherInfo@cpswrapper@@QBEABVTDesC16@@XZ @ 26 NONAME ; class TDesC16 const & cpswrapper::CPublisherInfo::WidgetName(void) const
	?NewL@CCpsWrapper@cpswrapper@@SAPAV12@AAVMCpsWrapperObserver@2@@Z @ 27 NONAME ; class cpswrapper::CCpsWrapper * cpswrapper::CCpsWrapper::NewL(class cpswrapper::MCpsWrapperObserver &)
	?SetDescriptionL@CPublisherInfo@cpswrapper@@QAEXABVTDesC16@@@Z @ 28 NONAME ; void cpswrapper::CPublisherInfo::SetDescriptionL(class TDesC16 const &)

